
034_apollo_uba_Emulacja_uba10_PulsToIDE_V3.elf:     file format elf32-avr

Sections:
Idx Name          Size      VMA       LMA       File off  Algn
  0 .text         00000db8  00000000  00000000  00000094  2**1
                  CONTENTS, ALLOC, LOAD, READONLY, CODE
  1 .data         00000054  00800060  00000db8  00000e4c  2**0
                  CONTENTS, ALLOC, LOAD, DATA
  2 .bss          0000002f  008000b4  008000b4  00000ea0  2**0
                  ALLOC

Disassembly of section .text:

00000000 <__vectors>:
   0:	12 c0       	rjmp	.+36     	; 0x26 <__ctors_end>
   2:	2c c0       	rjmp	.+88     	; 0x5c <__bad_interrupt>
   4:	2b c0       	rjmp	.+86     	; 0x5c <__bad_interrupt>
   6:	2a c0       	rjmp	.+84     	; 0x5c <__bad_interrupt>
   8:	29 c0       	rjmp	.+82     	; 0x5c <__bad_interrupt>
   a:	28 c0       	rjmp	.+80     	; 0x5c <__bad_interrupt>
   c:	27 c0       	rjmp	.+78     	; 0x5c <__bad_interrupt>
   e:	26 c0       	rjmp	.+76     	; 0x5c <__bad_interrupt>
  10:	25 c0       	rjmp	.+74     	; 0x5c <__bad_interrupt>
  12:	24 c0       	rjmp	.+72     	; 0x5c <__bad_interrupt>
  14:	23 c0       	rjmp	.+70     	; 0x5c <__bad_interrupt>
  16:	22 c0       	rjmp	.+68     	; 0x5c <__bad_interrupt>
  18:	21 c0       	rjmp	.+66     	; 0x5c <__bad_interrupt>
  1a:	20 c0       	rjmp	.+64     	; 0x5c <__bad_interrupt>
  1c:	1f c0       	rjmp	.+62     	; 0x5c <__bad_interrupt>
  1e:	1e c0       	rjmp	.+60     	; 0x5c <__bad_interrupt>
  20:	1d c0       	rjmp	.+58     	; 0x5c <__bad_interrupt>
  22:	1c c0       	rjmp	.+56     	; 0x5c <__bad_interrupt>
  24:	1b c0       	rjmp	.+54     	; 0x5c <__bad_interrupt>

00000026 <__ctors_end>:
  26:	11 24       	eor	r1, r1
  28:	1f be       	out	0x3f, r1	; 63
  2a:	cf e5       	ldi	r28, 0x5F	; 95
  2c:	d4 e0       	ldi	r29, 0x04	; 4
  2e:	de bf       	out	0x3e, r29	; 62
  30:	cd bf       	out	0x3d, r28	; 61

00000032 <__do_copy_data>:
  32:	10 e0       	ldi	r17, 0x00	; 0
  34:	a0 e6       	ldi	r26, 0x60	; 96
  36:	b0 e0       	ldi	r27, 0x00	; 0
  38:	e8 eb       	ldi	r30, 0xB8	; 184
  3a:	fd e0       	ldi	r31, 0x0D	; 13
  3c:	02 c0       	rjmp	.+4      	; 0x42 <.do_copy_data_start>

0000003e <.do_copy_data_loop>:
  3e:	05 90       	lpm	r0, Z+
  40:	0d 92       	st	X+, r0

00000042 <.do_copy_data_start>:
  42:	a4 3b       	cpi	r26, 0xB4	; 180
  44:	b1 07       	cpc	r27, r17
  46:	d9 f7       	brne	.-10     	; 0x3e <.do_copy_data_loop>

00000048 <__do_clear_bss>:
  48:	10 e0       	ldi	r17, 0x00	; 0
  4a:	a4 eb       	ldi	r26, 0xB4	; 180
  4c:	b0 e0       	ldi	r27, 0x00	; 0
  4e:	01 c0       	rjmp	.+2      	; 0x52 <.do_clear_bss_start>

00000050 <.do_clear_bss_loop>:
  50:	1d 92       	st	X+, r1

00000052 <.do_clear_bss_start>:
  52:	a3 3e       	cpi	r26, 0xE3	; 227
  54:	b1 07       	cpc	r27, r17
  56:	e1 f7       	brne	.-8      	; 0x50 <.do_clear_bss_loop>
  58:	27 d0       	rcall	.+78     	; 0xa8 <main>
  5a:	ac c6       	rjmp	.+3416   	; 0xdb4 <_exit>

0000005c <__bad_interrupt>:
  5c:	d1 cf       	rjmp	.-94     	; 0x0 <__vectors>

0000005e <check_is_money>:
  5e:	80 91 60 00 	lds	r24, 0x0060
  62:	88 23       	and	r24, r24
  64:	01 f5       	brne	.+64     	; 0xa6 <check_is_money+0x48>
  66:	b2 9b       	sbis	0x16, 2	; 22
  68:	03 c0       	rjmp	.+6      	; 0x70 <check_is_money+0x12>
  6a:	81 e0       	ldi	r24, 0x01	; 1
  6c:	80 93 b7 00 	sts	0x00B7, r24
  70:	b2 99       	sbic	0x16, 2	; 22
  72:	14 c0       	rjmp	.+40     	; 0x9c <check_is_money+0x3e>
  74:	80 91 b7 00 	lds	r24, 0x00B7
  78:	88 23       	and	r24, r24
  7a:	81 f0       	breq	.+32     	; 0x9c <check_is_money+0x3e>
  7c:	82 e4       	ldi	r24, 0x42	; 66
  7e:	8a 95       	dec	r24
  80:	f1 f7       	brne	.-4      	; 0x7e <check_is_money+0x20>
  82:	b2 99       	sbic	0x16, 2	; 22
  84:	0b c0       	rjmp	.+22     	; 0x9c <check_is_money+0x3e>
  86:	10 92 b9 00 	sts	0x00B9, r1
  8a:	10 92 b8 00 	sts	0x00B8, r1
  8e:	80 91 b4 00 	lds	r24, 0x00B4
  92:	8f 5f       	subi	r24, 0xFF	; 255
  94:	80 93 b4 00 	sts	0x00B4, r24
  98:	10 92 b7 00 	sts	0x00B7, r1
  9c:	b2 9b       	sbis	0x16, 2	; 22
  9e:	03 c0       	rjmp	.+6      	; 0xa6 <check_is_money+0x48>
  a0:	81 e0       	ldi	r24, 0x01	; 1
  a2:	80 93 b7 00 	sts	0x00B7, r24
  a6:	08 95       	ret

000000a8 <main>:
  a8:	2f 92       	push	r2
  aa:	3f 92       	push	r3
  ac:	4f 92       	push	r4
  ae:	5f 92       	push	r5
  b0:	6f 92       	push	r6
  b2:	7f 92       	push	r7
  b4:	8f 92       	push	r8
  b6:	9f 92       	push	r9
  b8:	af 92       	push	r10
  ba:	bf 92       	push	r11
  bc:	cf 92       	push	r12
  be:	df 92       	push	r13
  c0:	ef 92       	push	r14
  c2:	ff 92       	push	r15
  c4:	0f 93       	push	r16
  c6:	1f 93       	push	r17
  c8:	ba 98       	cbi	0x17, 2	; 23
  ca:	c2 9a       	sbi	0x18, 2	; 24
  cc:	10 bc       	out	0x20, r1	; 32
  ce:	83 e3       	ldi	r24, 0x33	; 51
  d0:	89 b9       	out	0x09, r24	; 9
  d2:	88 e1       	ldi	r24, 0x18	; 24
  d4:	8a b9       	out	0x0a, r24	; 10
  d6:	86 ea       	ldi	r24, 0xA6	; 166
  d8:	80 bd       	out	0x20, r24	; 32
  da:	80 e2       	ldi	r24, 0x20	; 32
  dc:	9e e4       	ldi	r25, 0x4E	; 78
  de:	28 ec       	ldi	r18, 0xC8	; 200
  e0:	30 e0       	ldi	r19, 0x00	; 0
  e2:	f9 01       	movw	r30, r18
  e4:	31 97       	sbiw	r30, 0x01	; 1
  e6:	f1 f7       	brne	.-4      	; 0xe4 <main+0x3c>
  e8:	01 97       	sbiw	r24, 0x01	; 1
  ea:	d9 f7       	brne	.-10     	; 0xe2 <main+0x3a>
  ec:	4b c2       	rjmp	.+1174   	; 0x584 <__stack+0x125>
  ee:	5f 9b       	sbis	0x0b, 7	; 11
  f0:	fe cf       	rjmp	.-4      	; 0xee <main+0x46>
  f2:	8c b1       	in	r24, 0x0c	; 12
  f4:	80 93 bb 00 	sts	0x00BB, r24
  f8:	80 91 bb 00 	lds	r24, 0x00BB
  fc:	8c 3f       	cpi	r24, 0xFC	; 252
  fe:	09 f0       	breq	.+2      	; 0x102 <main+0x5a>
 100:	49 c2       	rjmp	.+1170   	; 0x594 <__stack+0x135>
 102:	5f 9b       	sbis	0x0b, 7	; 11
 104:	fe cf       	rjmp	.-4      	; 0x102 <main+0x5a>
 106:	8c b1       	in	r24, 0x0c	; 12
 108:	80 93 bc 00 	sts	0x00BC, r24
 10c:	a0 93 ba 00 	sts	0x00BA, r26
 110:	0e c0       	rjmp	.+28     	; 0x12e <main+0x86>
 112:	e0 91 ba 00 	lds	r30, 0x00BA
 116:	5f 9b       	sbis	0x0b, 7	; 11
 118:	fe cf       	rjmp	.-4      	; 0x116 <main+0x6e>
 11a:	8c b1       	in	r24, 0x0c	; 12
 11c:	f0 e0       	ldi	r31, 0x00	; 0
 11e:	e5 54       	subi	r30, 0x45	; 69
 120:	ff 4f       	sbci	r31, 0xFF	; 255
 122:	80 83       	st	Z, r24
 124:	80 91 ba 00 	lds	r24, 0x00BA
 128:	8f 5f       	subi	r24, 0xFF	; 255
 12a:	80 93 ba 00 	sts	0x00BA, r24
 12e:	90 91 ba 00 	lds	r25, 0x00BA
 132:	80 91 bc 00 	lds	r24, 0x00BC
 136:	98 17       	cp	r25, r24
 138:	60 f3       	brcs	.-40     	; 0x112 <main+0x6a>
 13a:	80 91 bc 00 	lds	r24, 0x00BC
 13e:	85 30       	cpi	r24, 0x05	; 5
 140:	d9 f4       	brne	.+54     	; 0x178 <main+0xd0>
 142:	80 91 bd 00 	lds	r24, 0x00BD
 146:	80 34       	cpi	r24, 0x40	; 64
 148:	b9 f4       	brne	.+46     	; 0x178 <main+0xd0>
 14a:	80 91 be 00 	lds	r24, 0x00BE
 14e:	8b 32       	cpi	r24, 0x2B	; 43
 150:	99 f4       	brne	.+38     	; 0x178 <main+0xd0>
 152:	80 91 bf 00 	lds	r24, 0x00BF
 156:	85 31       	cpi	r24, 0x15	; 21
 158:	79 f4       	brne	.+30     	; 0x178 <main+0xd0>
 15a:	5d 9b       	sbis	0x0b, 5	; 11
 15c:	fe cf       	rjmp	.-4      	; 0x15a <main+0xb2>
 15e:	2c b9       	out	0x0c, r18	; 12
 160:	5d 9b       	sbis	0x0b, 5	; 11
 162:	fe cf       	rjmp	.-4      	; 0x160 <main+0xb8>
 164:	3c b9       	out	0x0c, r19	; 12
 166:	5d 9b       	sbis	0x0b, 5	; 11
 168:	fe cf       	rjmp	.-4      	; 0x166 <main+0xbe>
 16a:	6c b9       	out	0x0c, r22	; 12
 16c:	5d 9b       	sbis	0x0b, 5	; 11
 16e:	fe cf       	rjmp	.-4      	; 0x16c <main+0xc4>
 170:	7c b9       	out	0x0c, r23	; 12
 172:	5d 9b       	sbis	0x0b, 5	; 11
 174:	fe cf       	rjmp	.-4      	; 0x172 <main+0xca>
 176:	3c b9       	out	0x0c, r19	; 12
 178:	80 91 bc 00 	lds	r24, 0x00BC
 17c:	85 30       	cpi	r24, 0x05	; 5
 17e:	09 f0       	breq	.+2      	; 0x182 <main+0xda>
 180:	46 c0       	rjmp	.+140    	; 0x20e <main+0x166>
 182:	80 91 bd 00 	lds	r24, 0x00BD
 186:	81 31       	cpi	r24, 0x11	; 17
 188:	09 f0       	breq	.+2      	; 0x18c <main+0xe4>
 18a:	41 c0       	rjmp	.+130    	; 0x20e <main+0x166>
 18c:	80 91 be 00 	lds	r24, 0x00BE
 190:	87 32       	cpi	r24, 0x27	; 39
 192:	e9 f5       	brne	.+122    	; 0x20e <main+0x166>
 194:	80 91 bf 00 	lds	r24, 0x00BF
 198:	86 35       	cpi	r24, 0x56	; 86
 19a:	c9 f5       	brne	.+114    	; 0x20e <main+0x166>
 19c:	80 91 b5 00 	lds	r24, 0x00B5
 1a0:	88 23       	and	r24, r24
 1a2:	09 f1       	breq	.+66     	; 0x1e6 <main+0x13e>
 1a4:	10 92 ba 00 	sts	0x00BA, r1
 1a8:	0e c0       	rjmp	.+28     	; 0x1c6 <main+0x11e>
 1aa:	e0 91 ba 00 	lds	r30, 0x00BA
 1ae:	f0 e0       	ldi	r31, 0x00	; 0
 1b0:	e5 54       	subi	r30, 0x45	; 69
 1b2:	ff 4f       	sbci	r31, 0xFF	; 255
 1b4:	e0 81       	ld	r30, Z
 1b6:	5d 9b       	sbis	0x0b, 5	; 11
 1b8:	fe cf       	rjmp	.-4      	; 0x1b6 <main+0x10e>
 1ba:	ec b9       	out	0x0c, r30	; 12
 1bc:	80 91 ba 00 	lds	r24, 0x00BA
 1c0:	8f 5f       	subi	r24, 0xFF	; 255
 1c2:	80 93 ba 00 	sts	0x00BA, r24
 1c6:	80 91 ba 00 	lds	r24, 0x00BA
 1ca:	85 30       	cpi	r24, 0x05	; 5
 1cc:	70 f3       	brcs	.-36     	; 0x1aa <main+0x102>
 1ce:	80 91 b5 00 	lds	r24, 0x00B5
 1d2:	83 30       	cpi	r24, 0x03	; 3
 1d4:	11 f4       	brne	.+4      	; 0x1da <main+0x132>
 1d6:	10 92 60 00 	sts	0x0060, r1
 1da:	80 91 b5 00 	lds	r24, 0x00B5
 1de:	8f 5f       	subi	r24, 0xFF	; 255
 1e0:	80 93 b5 00 	sts	0x00B5, r24
 1e4:	14 c0       	rjmp	.+40     	; 0x20e <main+0x166>
 1e6:	80 91 b5 00 	lds	r24, 0x00B5
 1ea:	8f 5f       	subi	r24, 0xFF	; 255
 1ec:	80 93 b5 00 	sts	0x00B5, r24
 1f0:	5d 9b       	sbis	0x0b, 5	; 11
 1f2:	fe cf       	rjmp	.-4      	; 0x1f0 <main+0x148>
 1f4:	2c b9       	out	0x0c, r18	; 12
 1f6:	5d 9b       	sbis	0x0b, 5	; 11
 1f8:	fe cf       	rjmp	.-4      	; 0x1f6 <main+0x14e>
 1fa:	3c b9       	out	0x0c, r19	; 12
 1fc:	5d 9b       	sbis	0x0b, 5	; 11
 1fe:	fe cf       	rjmp	.-4      	; 0x1fc <main+0x154>
 200:	bc b9       	out	0x0c, r27	; 12
 202:	5d 9b       	sbis	0x0b, 5	; 11
 204:	fe cf       	rjmp	.-4      	; 0x202 <main+0x15a>
 206:	4c b9       	out	0x0c, r20	; 12
 208:	5d 9b       	sbis	0x0b, 5	; 11
 20a:	fe cf       	rjmp	.-4      	; 0x208 <main+0x160>
 20c:	5c b9       	out	0x0c, r21	; 12
 20e:	80 91 bc 00 	lds	r24, 0x00BC
 212:	85 30       	cpi	r24, 0x05	; 5
 214:	21 f5       	brne	.+72     	; 0x25e <main+0x1b6>
 216:	80 91 bd 00 	lds	r24, 0x00BD
 21a:	88 38       	cpi	r24, 0x88	; 136
 21c:	01 f5       	brne	.+64     	; 0x25e <main+0x1b6>
 21e:	80 91 be 00 	lds	r24, 0x00BE
 222:	8f 36       	cpi	r24, 0x6F	; 111
 224:	e1 f4       	brne	.+56     	; 0x25e <main+0x1b6>
 226:	80 91 bf 00 	lds	r24, 0x00BF
 22a:	8f 35       	cpi	r24, 0x5F	; 95
 22c:	c1 f4       	brne	.+48     	; 0x25e <main+0x1b6>
 22e:	5d 9b       	sbis	0x0b, 5	; 11
 230:	fe cf       	rjmp	.-4      	; 0x22e <main+0x186>
 232:	2c b9       	out	0x0c, r18	; 12
 234:	10 92 ba 00 	sts	0x00BA, r1
 238:	0e c0       	rjmp	.+28     	; 0x256 <main+0x1ae>
 23a:	e0 91 ba 00 	lds	r30, 0x00BA
 23e:	f0 e0       	ldi	r31, 0x00	; 0
 240:	ef 59       	subi	r30, 0x9F	; 159
 242:	ff 4f       	sbci	r31, 0xFF	; 255
 244:	e0 81       	ld	r30, Z
 246:	5d 9b       	sbis	0x0b, 5	; 11
 248:	fe cf       	rjmp	.-4      	; 0x246 <main+0x19e>
 24a:	ec b9       	out	0x0c, r30	; 12
 24c:	80 91 ba 00 	lds	r24, 0x00BA
 250:	8f 5f       	subi	r24, 0xFF	; 255
 252:	80 93 ba 00 	sts	0x00BA, r24
 256:	80 91 ba 00 	lds	r24, 0x00BA
 25a:	8d 32       	cpi	r24, 0x2D	; 45
 25c:	70 f3       	brcs	.-36     	; 0x23a <main+0x192>
 25e:	80 91 bc 00 	lds	r24, 0x00BC
 262:	85 30       	cpi	r24, 0x05	; 5
 264:	21 f5       	brne	.+72     	; 0x2ae <main+0x206>
 266:	80 91 bd 00 	lds	r24, 0x00BD
 26a:	8a 38       	cpi	r24, 0x8A	; 138
 26c:	01 f5       	brne	.+64     	; 0x2ae <main+0x206>
 26e:	80 91 be 00 	lds	r24, 0x00BE
 272:	8d 37       	cpi	r24, 0x7D	; 125
 274:	e1 f4       	brne	.+56     	; 0x2ae <main+0x206>
 276:	80 91 bf 00 	lds	r24, 0x00BF
 27a:	8c 37       	cpi	r24, 0x7C	; 124
 27c:	c1 f4       	brne	.+48     	; 0x2ae <main+0x206>
 27e:	5d 9b       	sbis	0x0b, 5	; 11
 280:	fe cf       	rjmp	.-4      	; 0x27e <main+0x1d6>
 282:	2c b9       	out	0x0c, r18	; 12
 284:	10 92 ba 00 	sts	0x00BA, r1
 288:	0e c0       	rjmp	.+28     	; 0x2a6 <main+0x1fe>
 28a:	e0 91 ba 00 	lds	r30, 0x00BA
 28e:	f0 e0       	ldi	r31, 0x00	; 0
 290:	e1 57       	subi	r30, 0x71	; 113
 292:	ff 4f       	sbci	r31, 0xFF	; 255
 294:	e0 81       	ld	r30, Z
 296:	5d 9b       	sbis	0x0b, 5	; 11
 298:	fe cf       	rjmp	.-4      	; 0x296 <main+0x1ee>
 29a:	ec b9       	out	0x0c, r30	; 12
 29c:	80 91 ba 00 	lds	r24, 0x00BA
 2a0:	8f 5f       	subi	r24, 0xFF	; 255
 2a2:	80 93 ba 00 	sts	0x00BA, r24
 2a6:	80 91 ba 00 	lds	r24, 0x00BA
 2aa:	84 32       	cpi	r24, 0x24	; 36
 2ac:	70 f3       	brcs	.-36     	; 0x28a <main+0x1e2>
 2ae:	80 91 bc 00 	lds	r24, 0x00BC
 2b2:	87 30       	cpi	r24, 0x07	; 7
 2b4:	49 f5       	brne	.+82     	; 0x308 <main+0x260>
 2b6:	80 91 bd 00 	lds	r24, 0x00BD
 2ba:	80 3c       	cpi	r24, 0xC0	; 192
 2bc:	29 f5       	brne	.+74     	; 0x308 <main+0x260>
 2be:	80 91 be 00 	lds	r24, 0x00BE
 2c2:	80 3e       	cpi	r24, 0xE0	; 224
 2c4:	09 f5       	brne	.+66     	; 0x308 <main+0x260>
 2c6:	80 91 bf 00 	lds	r24, 0x00BF
 2ca:	8f 3f       	cpi	r24, 0xFF	; 255
 2cc:	e9 f4       	brne	.+58     	; 0x308 <main+0x260>
 2ce:	80 91 c0 00 	lds	r24, 0x00C0
 2d2:	8c 3c       	cpi	r24, 0xCC	; 204
 2d4:	c9 f4       	brne	.+50     	; 0x308 <main+0x260>
 2d6:	80 91 c1 00 	lds	r24, 0x00C1
 2da:	83 35       	cpi	r24, 0x53	; 83
 2dc:	a9 f4       	brne	.+42     	; 0x308 <main+0x260>
 2de:	10 92 ba 00 	sts	0x00BA, r1
 2e2:	0e c0       	rjmp	.+28     	; 0x300 <main+0x258>
 2e4:	e0 91 ba 00 	lds	r30, 0x00BA
 2e8:	f0 e0       	ldi	r31, 0x00	; 0
 2ea:	e5 54       	subi	r30, 0x45	; 69
 2ec:	ff 4f       	sbci	r31, 0xFF	; 255
 2ee:	e0 81       	ld	r30, Z
 2f0:	5d 9b       	sbis	0x0b, 5	; 11
 2f2:	fe cf       	rjmp	.-4      	; 0x2f0 <main+0x248>
 2f4:	ec b9       	out	0x0c, r30	; 12
 2f6:	80 91 ba 00 	lds	r24, 0x00BA
 2fa:	8f 5f       	subi	r24, 0xFF	; 255
 2fc:	80 93 ba 00 	sts	0x00BA, r24
 300:	80 91 ba 00 	lds	r24, 0x00BA
 304:	87 30       	cpi	r24, 0x07	; 7
 306:	70 f3       	brcs	.-36     	; 0x2e4 <main+0x23c>
 308:	80 91 bc 00 	lds	r24, 0x00BC
 30c:	87 30       	cpi	r24, 0x07	; 7
 30e:	49 f5       	brne	.+82     	; 0x362 <main+0x2ba>
 310:	80 91 bd 00 	lds	r24, 0x00BD
 314:	81 3c       	cpi	r24, 0xC1	; 193
 316:	29 f5       	brne	.+74     	; 0x362 <main+0x2ba>
 318:	80 91 be 00 	lds	r24, 0x00BE
 31c:	88 23       	and	r24, r24
 31e:	09 f5       	brne	.+66     	; 0x362 <main+0x2ba>
 320:	80 91 bf 00 	lds	r24, 0x00BF
 324:	88 23       	and	r24, r24
 326:	e9 f4       	brne	.+58     	; 0x362 <main+0x2ba>
 328:	80 91 c0 00 	lds	r24, 0x00C0
 32c:	81 3f       	cpi	r24, 0xF1	; 241
 32e:	c9 f4       	brne	.+50     	; 0x362 <main+0x2ba>
 330:	80 91 c1 00 	lds	r24, 0x00C1
 334:	8f 3e       	cpi	r24, 0xEF	; 239
 336:	a9 f4       	brne	.+42     	; 0x362 <main+0x2ba>
 338:	10 92 ba 00 	sts	0x00BA, r1
 33c:	0e c0       	rjmp	.+28     	; 0x35a <main+0x2b2>
 33e:	e0 91 ba 00 	lds	r30, 0x00BA
 342:	f0 e0       	ldi	r31, 0x00	; 0
 344:	e5 54       	subi	r30, 0x45	; 69
 346:	ff 4f       	sbci	r31, 0xFF	; 255
 348:	e0 81       	ld	r30, Z
 34a:	5d 9b       	sbis	0x0b, 5	; 11
 34c:	fe cf       	rjmp	.-4      	; 0x34a <main+0x2a2>
 34e:	ec b9       	out	0x0c, r30	; 12
 350:	80 91 ba 00 	lds	r24, 0x00BA
 354:	8f 5f       	subi	r24, 0xFF	; 255
 356:	80 93 ba 00 	sts	0x00BA, r24
 35a:	80 91 ba 00 	lds	r24, 0x00BA
 35e:	87 30       	cpi	r24, 0x07	; 7
 360:	70 f3       	brcs	.-36     	; 0x33e <main+0x296>
 362:	80 91 bc 00 	lds	r24, 0x00BC
 366:	87 30       	cpi	r24, 0x07	; 7
 368:	49 f5       	brne	.+82     	; 0x3bc <main+0x314>
 36a:	80 91 bd 00 	lds	r24, 0x00BD
 36e:	85 3c       	cpi	r24, 0xC5	; 197
 370:	29 f5       	brne	.+74     	; 0x3bc <main+0x314>
 372:	80 91 be 00 	lds	r24, 0x00BE
 376:	83 30       	cpi	r24, 0x03	; 3
 378:	09 f5       	brne	.+66     	; 0x3bc <main+0x314>
 37a:	80 91 bf 00 	lds	r24, 0x00BF
 37e:	88 23       	and	r24, r24
 380:	e9 f4       	brne	.+58     	; 0x3bc <main+0x314>
 382:	80 91 c0 00 	lds	r24, 0x00C0
 386:	88 3f       	cpi	r24, 0xF8	; 248
 388:	c9 f4       	brne	.+50     	; 0x3bc <main+0x314>
 38a:	80 91 c1 00 	lds	r24, 0x00C1
 38e:	86 3a       	cpi	r24, 0xA6	; 166
 390:	a9 f4       	brne	.+42     	; 0x3bc <main+0x314>
 392:	10 92 ba 00 	sts	0x00BA, r1
 396:	0e c0       	rjmp	.+28     	; 0x3b4 <main+0x30c>
 398:	e0 91 ba 00 	lds	r30, 0x00BA
 39c:	f0 e0       	ldi	r31, 0x00	; 0
 39e:	e5 54       	subi	r30, 0x45	; 69
 3a0:	ff 4f       	sbci	r31, 0xFF	; 255
 3a2:	e0 81       	ld	r30, Z
 3a4:	5d 9b       	sbis	0x0b, 5	; 11
 3a6:	fe cf       	rjmp	.-4      	; 0x3a4 <main+0x2fc>
 3a8:	ec b9       	out	0x0c, r30	; 12
 3aa:	80 91 ba 00 	lds	r24, 0x00BA
 3ae:	8f 5f       	subi	r24, 0xFF	; 255
 3b0:	80 93 ba 00 	sts	0x00BA, r24
 3b4:	80 91 ba 00 	lds	r24, 0x00BA
 3b8:	87 30       	cpi	r24, 0x07	; 7
 3ba:	70 f3       	brcs	.-36     	; 0x398 <main+0x2f0>
 3bc:	80 91 bc 00 	lds	r24, 0x00BC
 3c0:	86 30       	cpi	r24, 0x06	; 6
 3c2:	29 f5       	brne	.+74     	; 0x40e <main+0x366>
 3c4:	80 91 bd 00 	lds	r24, 0x00BD
 3c8:	82 3c       	cpi	r24, 0xC2	; 194
 3ca:	09 f5       	brne	.+66     	; 0x40e <main+0x366>
 3cc:	80 91 be 00 	lds	r24, 0x00BE
 3d0:	88 23       	and	r24, r24
 3d2:	e9 f4       	brne	.+58     	; 0x40e <main+0x366>
 3d4:	80 91 bf 00 	lds	r24, 0x00BF
 3d8:	8c 3d       	cpi	r24, 0xDC	; 220
 3da:	c9 f4       	brne	.+50     	; 0x40e <main+0x366>
 3dc:	80 91 c0 00 	lds	r24, 0x00C0
 3e0:	8f 3c       	cpi	r24, 0xCF	; 207
 3e2:	a9 f4       	brne	.+42     	; 0x40e <main+0x366>
 3e4:	10 92 ba 00 	sts	0x00BA, r1
 3e8:	0e c0       	rjmp	.+28     	; 0x406 <main+0x35e>
 3ea:	e0 91 ba 00 	lds	r30, 0x00BA
 3ee:	f0 e0       	ldi	r31, 0x00	; 0
 3f0:	e5 54       	subi	r30, 0x45	; 69
 3f2:	ff 4f       	sbci	r31, 0xFF	; 255
 3f4:	e0 81       	ld	r30, Z
 3f6:	5d 9b       	sbis	0x0b, 5	; 11
 3f8:	fe cf       	rjmp	.-4      	; 0x3f6 <main+0x34e>
 3fa:	ec b9       	out	0x0c, r30	; 12
 3fc:	80 91 ba 00 	lds	r24, 0x00BA
 400:	8f 5f       	subi	r24, 0xFF	; 255
 402:	80 93 ba 00 	sts	0x00BA, r24
 406:	80 91 ba 00 	lds	r24, 0x00BA
 40a:	86 30       	cpi	r24, 0x06	; 6
 40c:	70 f3       	brcs	.-36     	; 0x3ea <main+0x342>
 40e:	80 91 bc 00 	lds	r24, 0x00BC
 412:	87 30       	cpi	r24, 0x07	; 7
 414:	49 f5       	brne	.+82     	; 0x468 <__stack+0x9>
 416:	80 91 bd 00 	lds	r24, 0x00BD
 41a:	86 3c       	cpi	r24, 0xC6	; 198
 41c:	29 f5       	brne	.+74     	; 0x468 <__stack+0x9>
 41e:	80 91 be 00 	lds	r24, 0x00BE
 422:	81 30       	cpi	r24, 0x01	; 1
 424:	09 f5       	brne	.+66     	; 0x468 <__stack+0x9>
 426:	80 91 bf 00 	lds	r24, 0x00BF
 42a:	82 31       	cpi	r24, 0x12	; 18
 42c:	e9 f4       	brne	.+58     	; 0x468 <__stack+0x9>
 42e:	80 91 c0 00 	lds	r24, 0x00C0
 432:	8f 3b       	cpi	r24, 0xBF	; 191
 434:	c9 f4       	brne	.+50     	; 0x468 <__stack+0x9>
 436:	80 91 c1 00 	lds	r24, 0x00C1
 43a:	89 34       	cpi	r24, 0x49	; 73
 43c:	a9 f4       	brne	.+42     	; 0x468 <__stack+0x9>
 43e:	10 92 ba 00 	sts	0x00BA, r1
 442:	0e c0       	rjmp	.+28     	; 0x460 <__stack+0x1>
 444:	e0 91 ba 00 	lds	r30, 0x00BA
 448:	f0 e0       	ldi	r31, 0x00	; 0
 44a:	e5 54       	subi	r30, 0x45	; 69
 44c:	ff 4f       	sbci	r31, 0xFF	; 255
 44e:	e0 81       	ld	r30, Z
 450:	5d 9b       	sbis	0x0b, 5	; 11
 452:	fe cf       	rjmp	.-4      	; 0x450 <main+0x3a8>
 454:	ec b9       	out	0x0c, r30	; 12
 456:	80 91 ba 00 	lds	r24, 0x00BA
 45a:	8f 5f       	subi	r24, 0xFF	; 255
 45c:	80 93 ba 00 	sts	0x00BA, r24
 460:	80 91 ba 00 	lds	r24, 0x00BA
 464:	87 30       	cpi	r24, 0x07	; 7
 466:	70 f3       	brcs	.-36     	; 0x444 <main+0x39c>
 468:	80 91 bc 00 	lds	r24, 0x00BC
 46c:	86 30       	cpi	r24, 0x06	; 6
 46e:	29 f5       	brne	.+74     	; 0x4ba <__stack+0x5b>
 470:	80 91 bd 00 	lds	r24, 0x00BD
 474:	87 3c       	cpi	r24, 0xC7	; 199
 476:	09 f5       	brne	.+66     	; 0x4ba <__stack+0x5b>
 478:	80 91 be 00 	lds	r24, 0x00BE
 47c:	8c 3f       	cpi	r24, 0xFC	; 252
 47e:	e9 f4       	brne	.+58     	; 0x4ba <__stack+0x5b>
 480:	80 91 bf 00 	lds	r24, 0x00BF
 484:	87 38       	cpi	r24, 0x87	; 135
 486:	c9 f4       	brne	.+50     	; 0x4ba <__stack+0x5b>
 488:	80 91 c0 00 	lds	r24, 0x00C0
 48c:	8c 38       	cpi	r24, 0x8C	; 140
 48e:	a9 f4       	brne	.+42     	; 0x4ba <__stack+0x5b>
 490:	10 92 ba 00 	sts	0x00BA, r1
 494:	0e c0       	rjmp	.+28     	; 0x4b2 <__stack+0x53>
 496:	e0 91 ba 00 	lds	r30, 0x00BA
 49a:	f0 e0       	ldi	r31, 0x00	; 0
 49c:	e5 54       	subi	r30, 0x45	; 69
 49e:	ff 4f       	sbci	r31, 0xFF	; 255
 4a0:	e0 81       	ld	r30, Z
 4a2:	5d 9b       	sbis	0x0b, 5	; 11
 4a4:	fe cf       	rjmp	.-4      	; 0x4a2 <__stack+0x43>
 4a6:	ec b9       	out	0x0c, r30	; 12
 4a8:	80 91 ba 00 	lds	r24, 0x00BA
 4ac:	8f 5f       	subi	r24, 0xFF	; 255
 4ae:	80 93 ba 00 	sts	0x00BA, r24
 4b2:	80 91 ba 00 	lds	r24, 0x00BA
 4b6:	86 30       	cpi	r24, 0x06	; 6
 4b8:	70 f3       	brcs	.-36     	; 0x496 <__stack+0x37>
 4ba:	80 91 bc 00 	lds	r24, 0x00BC
 4be:	86 30       	cpi	r24, 0x06	; 6
 4c0:	29 f5       	brne	.+74     	; 0x50c <__stack+0xad>
 4c2:	80 91 bd 00 	lds	r24, 0x00BD
 4c6:	83 3c       	cpi	r24, 0xC3	; 195
 4c8:	09 f5       	brne	.+66     	; 0x50c <__stack+0xad>
 4ca:	80 91 be 00 	lds	r24, 0x00BE
 4ce:	81 30       	cpi	r24, 0x01	; 1
 4d0:	e9 f4       	brne	.+58     	; 0x50c <__stack+0xad>
 4d2:	80 91 bf 00 	lds	r24, 0x00BF
 4d6:	8d 38       	cpi	r24, 0x8D	; 141
 4d8:	c9 f4       	brne	.+50     	; 0x50c <__stack+0xad>
 4da:	80 91 c0 00 	lds	r24, 0x00C0
 4de:	87 3c       	cpi	r24, 0xC7	; 199
 4e0:	a9 f4       	brne	.+42     	; 0x50c <__stack+0xad>
 4e2:	10 92 ba 00 	sts	0x00BA, r1
 4e6:	0e c0       	rjmp	.+28     	; 0x504 <__stack+0xa5>
 4e8:	e0 91 ba 00 	lds	r30, 0x00BA
 4ec:	f0 e0       	ldi	r31, 0x00	; 0
 4ee:	e5 54       	subi	r30, 0x45	; 69
 4f0:	ff 4f       	sbci	r31, 0xFF	; 255
 4f2:	e0 81       	ld	r30, Z
 4f4:	5d 9b       	sbis	0x0b, 5	; 11
 4f6:	fe cf       	rjmp	.-4      	; 0x4f4 <__stack+0x95>
 4f8:	ec b9       	out	0x0c, r30	; 12
 4fa:	80 91 ba 00 	lds	r24, 0x00BA
 4fe:	8f 5f       	subi	r24, 0xFF	; 255
 500:	80 93 ba 00 	sts	0x00BA, r24
 504:	80 91 ba 00 	lds	r24, 0x00BA
 508:	86 30       	cpi	r24, 0x06	; 6
 50a:	70 f3       	brcs	.-36     	; 0x4e8 <__stack+0x89>
 50c:	80 91 bc 00 	lds	r24, 0x00BC
 510:	86 30       	cpi	r24, 0x06	; 6
 512:	29 f5       	brne	.+74     	; 0x55e <__stack+0xff>
 514:	80 91 bd 00 	lds	r24, 0x00BD
 518:	83 3c       	cpi	r24, 0xC3	; 195
 51a:	09 f5       	brne	.+66     	; 0x55e <__stack+0xff>
 51c:	80 91 be 00 	lds	r24, 0x00BE
 520:	88 23       	and	r24, r24
 522:	e9 f4       	brne	.+58     	; 0x55e <__stack+0xff>
 524:	80 91 bf 00 	lds	r24, 0x00BF
 528:	84 30       	cpi	r24, 0x04	; 4
 52a:	c9 f4       	brne	.+50     	; 0x55e <__stack+0xff>
 52c:	80 91 c0 00 	lds	r24, 0x00C0
 530:	86 3d       	cpi	r24, 0xD6	; 214
 532:	a9 f4       	brne	.+42     	; 0x55e <__stack+0xff>
 534:	10 92 ba 00 	sts	0x00BA, r1
 538:	0e c0       	rjmp	.+28     	; 0x556 <__stack+0xf7>
 53a:	e0 91 ba 00 	lds	r30, 0x00BA
 53e:	f0 e0       	ldi	r31, 0x00	; 0
 540:	e5 54       	subi	r30, 0x45	; 69
 542:	ff 4f       	sbci	r31, 0xFF	; 255
 544:	e0 81       	ld	r30, Z
 546:	5d 9b       	sbis	0x0b, 5	; 11
 548:	fe cf       	rjmp	.-4      	; 0x546 <__stack+0xe7>
 54a:	ec b9       	out	0x0c, r30	; 12
 54c:	80 91 ba 00 	lds	r24, 0x00BA
 550:	8f 5f       	subi	r24, 0xFF	; 255
 552:	80 93 ba 00 	sts	0x00BA, r24
 556:	80 91 ba 00 	lds	r24, 0x00BA
 55a:	86 30       	cpi	r24, 0x06	; 6
 55c:	70 f3       	brcs	.-36     	; 0x53a <__stack+0xdb>
 55e:	10 92 ba 00 	sts	0x00BA, r1
 562:	0b c0       	rjmp	.+22     	; 0x57a <__stack+0x11b>
 564:	e0 91 ba 00 	lds	r30, 0x00BA
 568:	f0 e0       	ldi	r31, 0x00	; 0
 56a:	e5 54       	subi	r30, 0x45	; 69
 56c:	ff 4f       	sbci	r31, 0xFF	; 255
 56e:	10 82       	st	Z, r1
 570:	80 91 ba 00 	lds	r24, 0x00BA
 574:	8f 5f       	subi	r24, 0xFF	; 255
 576:	80 93 ba 00 	sts	0x00BA, r24
 57a:	80 91 ba 00 	lds	r24, 0x00BA
 57e:	88 32       	cpi	r24, 0x28	; 40
 580:	48 f4       	brcc	.+18     	; 0x594 <__stack+0x135>
 582:	f0 cf       	rjmp	.-32     	; 0x564 <__stack+0x105>
 584:	a2 e0       	ldi	r26, 0x02	; 2
 586:	2c ef       	ldi	r18, 0xFC	; 252
 588:	35 e0       	ldi	r19, 0x05	; 5
 58a:	bb e1       	ldi	r27, 0x1B	; 27
 58c:	4d e7       	ldi	r20, 0x7D	; 125
 58e:	59 ef       	ldi	r21, 0xF9	; 249
 590:	60 e5       	ldi	r22, 0x50	; 80
 592:	7a ea       	ldi	r23, 0xAA	; 170
 594:	80 91 60 00 	lds	r24, 0x0060
 598:	88 23       	and	r24, r24
 59a:	09 f0       	breq	.+2      	; 0x59e <__stack+0x13f>
 59c:	a8 cd       	rjmp	.-1200   	; 0xee <main+0x46>
 59e:	12 e0       	ldi	r17, 0x02	; 2
 5a0:	31 2e       	mov	r3, r17
 5a2:	0c ef       	ldi	r16, 0xFC	; 252
 5a4:	b5 e0       	ldi	r27, 0x05	; 5
 5a6:	fb 2e       	mov	r15, r27
 5a8:	a2 e1       	ldi	r26, 0x12	; 18
 5aa:	8a 2e       	mov	r8, r26
 5ac:	fc eb       	ldi	r31, 0xBC	; 188
 5ae:	7f 2e       	mov	r7, r31
 5b0:	e4 e6       	ldi	r30, 0x64	; 100
 5b2:	9e 2e       	mov	r9, r30
 5b4:	70 e5       	ldi	r23, 0x50	; 80
 5b6:	27 2e       	mov	r2, r23
 5b8:	64 e1       	ldi	r22, 0x14	; 20
 5ba:	d6 2e       	mov	r13, r22
 5bc:	5a e8       	ldi	r21, 0x8A	; 138
 5be:	c5 2e       	mov	r12, r21
 5c0:	ee 24       	eor	r14, r14
 5c2:	e3 94       	inc	r14
 5c4:	46 e1       	ldi	r20, 0x16	; 22
 5c6:	64 2e       	mov	r6, r20
 5c8:	38 e9       	ldi	r19, 0x98	; 152
 5ca:	53 2e       	mov	r5, r19
 5cc:	22 e2       	ldi	r18, 0x22	; 34
 5ce:	42 2e       	mov	r4, r18
 5d0:	9a e1       	ldi	r25, 0x1A	; 26
 5d2:	b9 2e       	mov	r11, r25
 5d4:	84 ef       	ldi	r24, 0xF4	; 244
 5d6:	a8 2e       	mov	r10, r24
 5d8:	42 dd       	rcall	.-1404   	; 0x5e <check_is_money>
 5da:	5f 9b       	sbis	0x0b, 7	; 11
 5dc:	fe cf       	rjmp	.-4      	; 0x5da <__stack+0x17b>
 5de:	8c b1       	in	r24, 0x0c	; 12
 5e0:	80 93 bb 00 	sts	0x00BB, r24
 5e4:	3c dd       	rcall	.-1416   	; 0x5e <check_is_money>
 5e6:	80 91 bb 00 	lds	r24, 0x00BB
 5ea:	8c 3f       	cpi	r24, 0xFC	; 252
 5ec:	09 f0       	breq	.+2      	; 0x5f0 <__stack+0x191>
 5ee:	ce c3       	rjmp	.+1948   	; 0xd8c <__stack+0x92d>
 5f0:	5f 9b       	sbis	0x0b, 7	; 11
 5f2:	fe cf       	rjmp	.-4      	; 0x5f0 <__stack+0x191>
 5f4:	8c b1       	in	r24, 0x0c	; 12
 5f6:	80 93 bc 00 	sts	0x00BC, r24
 5fa:	30 92 ba 00 	sts	0x00BA, r3
 5fe:	0e c0       	rjmp	.+28     	; 0x61c <__stack+0x1bd>
 600:	e0 91 ba 00 	lds	r30, 0x00BA
 604:	5f 9b       	sbis	0x0b, 7	; 11
 606:	fe cf       	rjmp	.-4      	; 0x604 <__stack+0x1a5>
 608:	8c b1       	in	r24, 0x0c	; 12
 60a:	f0 e0       	ldi	r31, 0x00	; 0
 60c:	e5 54       	subi	r30, 0x45	; 69
 60e:	ff 4f       	sbci	r31, 0xFF	; 255
 610:	80 83       	st	Z, r24
 612:	80 91 ba 00 	lds	r24, 0x00BA
 616:	8f 5f       	subi	r24, 0xFF	; 255
 618:	80 93 ba 00 	sts	0x00BA, r24
 61c:	90 91 ba 00 	lds	r25, 0x00BA
 620:	80 91 bc 00 	lds	r24, 0x00BC
 624:	98 17       	cp	r25, r24
 626:	60 f3       	brcs	.-40     	; 0x600 <__stack+0x1a1>
 628:	80 91 bc 00 	lds	r24, 0x00BC
 62c:	86 30       	cpi	r24, 0x06	; 6
 62e:	41 f5       	brne	.+80     	; 0x680 <__stack+0x221>
 630:	80 91 bd 00 	lds	r24, 0x00BD
 634:	83 3c       	cpi	r24, 0xC3	; 195
 636:	21 f5       	brne	.+72     	; 0x680 <__stack+0x221>
 638:	80 91 be 00 	lds	r24, 0x00BE
 63c:	81 30       	cpi	r24, 0x01	; 1
 63e:	01 f5       	brne	.+64     	; 0x680 <__stack+0x221>
 640:	80 91 bf 00 	lds	r24, 0x00BF
 644:	8d 38       	cpi	r24, 0x8D	; 141
 646:	e1 f4       	brne	.+56     	; 0x680 <__stack+0x221>
 648:	80 91 c0 00 	lds	r24, 0x00C0
 64c:	87 3c       	cpi	r24, 0xC7	; 199
 64e:	c1 f4       	brne	.+48     	; 0x680 <__stack+0x221>
 650:	10 92 ba 00 	sts	0x00BA, r1
 654:	0e c0       	rjmp	.+28     	; 0x672 <__stack+0x213>
 656:	e0 91 ba 00 	lds	r30, 0x00BA
 65a:	f0 e0       	ldi	r31, 0x00	; 0
 65c:	e5 54       	subi	r30, 0x45	; 69
 65e:	ff 4f       	sbci	r31, 0xFF	; 255
 660:	e0 81       	ld	r30, Z
 662:	5d 9b       	sbis	0x0b, 5	; 11
 664:	fe cf       	rjmp	.-4      	; 0x662 <__stack+0x203>
 666:	ec b9       	out	0x0c, r30	; 12
 668:	80 91 ba 00 	lds	r24, 0x00BA
 66c:	8f 5f       	subi	r24, 0xFF	; 255
 66e:	80 93 ba 00 	sts	0x00BA, r24
 672:	80 91 ba 00 	lds	r24, 0x00BA
 676:	86 30       	cpi	r24, 0x06	; 6
 678:	70 f3       	brcs	.-36     	; 0x656 <__stack+0x1f7>
 67a:	f1 dc       	rcall	.-1566   	; 0x5e <check_is_money>
 67c:	10 92 b6 00 	sts	0x00B6, r1
 680:	ee dc       	rcall	.-1572   	; 0x5e <check_is_money>
 682:	80 91 bc 00 	lds	r24, 0x00BC
 686:	86 30       	cpi	r24, 0x06	; 6
 688:	41 f5       	brne	.+80     	; 0x6da <__stack+0x27b>
 68a:	80 91 bd 00 	lds	r24, 0x00BD
 68e:	83 3c       	cpi	r24, 0xC3	; 195
 690:	21 f5       	brne	.+72     	; 0x6da <__stack+0x27b>
 692:	80 91 be 00 	lds	r24, 0x00BE
 696:	88 23       	and	r24, r24
 698:	01 f5       	brne	.+64     	; 0x6da <__stack+0x27b>
 69a:	80 91 bf 00 	lds	r24, 0x00BF
 69e:	84 30       	cpi	r24, 0x04	; 4
 6a0:	e1 f4       	brne	.+56     	; 0x6da <__stack+0x27b>
 6a2:	80 91 c0 00 	lds	r24, 0x00C0
 6a6:	86 3d       	cpi	r24, 0xD6	; 214
 6a8:	c1 f4       	brne	.+48     	; 0x6da <__stack+0x27b>
 6aa:	10 92 ba 00 	sts	0x00BA, r1
 6ae:	0e c0       	rjmp	.+28     	; 0x6cc <__stack+0x26d>
 6b0:	e0 91 ba 00 	lds	r30, 0x00BA
 6b4:	f0 e0       	ldi	r31, 0x00	; 0
 6b6:	e5 54       	subi	r30, 0x45	; 69
 6b8:	ff 4f       	sbci	r31, 0xFF	; 255
 6ba:	e0 81       	ld	r30, Z
 6bc:	5d 9b       	sbis	0x0b, 5	; 11
 6be:	fe cf       	rjmp	.-4      	; 0x6bc <__stack+0x25d>
 6c0:	ec b9       	out	0x0c, r30	; 12
 6c2:	80 91 ba 00 	lds	r24, 0x00BA
 6c6:	8f 5f       	subi	r24, 0xFF	; 255
 6c8:	80 93 ba 00 	sts	0x00BA, r24
 6cc:	80 91 ba 00 	lds	r24, 0x00BA
 6d0:	86 30       	cpi	r24, 0x06	; 6
 6d2:	70 f3       	brcs	.-36     	; 0x6b0 <__stack+0x251>
 6d4:	c4 dc       	rcall	.-1656   	; 0x5e <check_is_money>
 6d6:	e0 92 b6 00 	sts	0x00B6, r14
 6da:	c1 dc       	rcall	.-1662   	; 0x5e <check_is_money>
 6dc:	80 91 bc 00 	lds	r24, 0x00BC
 6e0:	85 30       	cpi	r24, 0x05	; 5
 6e2:	09 f0       	breq	.+2      	; 0x6e6 <__stack+0x287>
 6e4:	41 c0       	rjmp	.+130    	; 0x768 <__stack+0x309>
 6e6:	80 91 bd 00 	lds	r24, 0x00BD
 6ea:	81 31       	cpi	r24, 0x11	; 17
 6ec:	e9 f5       	brne	.+122    	; 0x768 <__stack+0x309>
 6ee:	80 91 be 00 	lds	r24, 0x00BE
 6f2:	87 32       	cpi	r24, 0x27	; 39
 6f4:	c9 f5       	brne	.+114    	; 0x768 <__stack+0x309>
 6f6:	80 91 bf 00 	lds	r24, 0x00BF
 6fa:	86 35       	cpi	r24, 0x56	; 86
 6fc:	a9 f5       	brne	.+106    	; 0x768 <__stack+0x309>
 6fe:	af dc       	rcall	.-1698   	; 0x5e <check_is_money>
 700:	80 91 b4 00 	lds	r24, 0x00B4
 704:	88 23       	and	r24, r24
 706:	79 f5       	brne	.+94     	; 0x766 <__stack+0x307>
 708:	aa dc       	rcall	.-1708   	; 0x5e <check_is_money>
 70a:	80 91 b6 00 	lds	r24, 0x00B6
 70e:	88 23       	and	r24, r24
 710:	91 f0       	breq	.+36     	; 0x736 <__stack+0x2d7>
 712:	a5 dc       	rcall	.-1718   	; 0x5e <check_is_money>
 714:	5d 9b       	sbis	0x0b, 5	; 11
 716:	fe cf       	rjmp	.-4      	; 0x714 <__stack+0x2b5>
 718:	0c b9       	out	0x0c, r16	; 12
 71a:	5d 9b       	sbis	0x0b, 5	; 11
 71c:	fe cf       	rjmp	.-4      	; 0x71a <__stack+0x2bb>
 71e:	fc b8       	out	0x0c, r15	; 12
 720:	5d 9b       	sbis	0x0b, 5	; 11
 722:	fe cf       	rjmp	.-4      	; 0x720 <__stack+0x2c1>
 724:	bc b8       	out	0x0c, r11	; 12
 726:	5d 9b       	sbis	0x0b, 5	; 11
 728:	fe cf       	rjmp	.-4      	; 0x726 <__stack+0x2c7>
 72a:	ac b8       	out	0x0c, r10	; 12
 72c:	5d 9b       	sbis	0x0b, 5	; 11
 72e:	fe cf       	rjmp	.-4      	; 0x72c <__stack+0x2cd>
 730:	88 ee       	ldi	r24, 0xE8	; 232
 732:	8c b9       	out	0x0c, r24	; 12
 734:	16 c0       	rjmp	.+44     	; 0x762 <__stack+0x303>
 736:	93 dc       	rcall	.-1754   	; 0x5e <check_is_money>
 738:	10 92 ba 00 	sts	0x00BA, r1
 73c:	0e c0       	rjmp	.+28     	; 0x75a <__stack+0x2fb>
 73e:	e0 91 ba 00 	lds	r30, 0x00BA
 742:	f0 e0       	ldi	r31, 0x00	; 0
 744:	e5 54       	subi	r30, 0x45	; 69
 746:	ff 4f       	sbci	r31, 0xFF	; 255
 748:	e0 81       	ld	r30, Z
 74a:	5d 9b       	sbis	0x0b, 5	; 11
 74c:	fe cf       	rjmp	.-4      	; 0x74a <__stack+0x2eb>
 74e:	ec b9       	out	0x0c, r30	; 12
 750:	80 91 ba 00 	lds	r24, 0x00BA
 754:	8f 5f       	subi	r24, 0xFF	; 255
 756:	80 93 ba 00 	sts	0x00BA, r24
 75a:	80 91 ba 00 	lds	r24, 0x00BA
 75e:	85 30       	cpi	r24, 0x05	; 5
 760:	70 f3       	brcs	.-36     	; 0x73e <__stack+0x2df>
 762:	7d dc       	rcall	.-1798   	; 0x5e <check_is_money>
 764:	7c dc       	rcall	.-1800   	; 0x5e <check_is_money>
 766:	7b dc       	rcall	.-1802   	; 0x5e <check_is_money>
 768:	7a dc       	rcall	.-1804   	; 0x5e <check_is_money>
 76a:	80 91 b8 00 	lds	r24, 0x00B8
 76e:	90 91 b9 00 	lds	r25, 0x00B9
 772:	01 96       	adiw	r24, 0x01	; 1
 774:	90 93 b9 00 	sts	0x00B9, r25
 778:	80 93 b8 00 	sts	0x00B8, r24
 77c:	80 91 b4 00 	lds	r24, 0x00B4
 780:	88 23       	and	r24, r24
 782:	09 f4       	brne	.+2      	; 0x786 <__stack+0x327>
 784:	02 c3       	rjmp	.+1540   	; 0xd8a <__stack+0x92b>
 786:	80 91 b8 00 	lds	r24, 0x00B8
 78a:	90 91 b9 00 	lds	r25, 0x00B9
 78e:	84 97       	sbiw	r24, 0x24	; 36
 790:	70 f5       	brcc	.+92     	; 0x7ee <__stack+0x38f>
 792:	65 dc       	rcall	.-1846   	; 0x5e <check_is_money>
 794:	80 91 b6 00 	lds	r24, 0x00B6
 798:	88 23       	and	r24, r24
 79a:	91 f0       	breq	.+36     	; 0x7c0 <__stack+0x361>
 79c:	60 dc       	rcall	.-1856   	; 0x5e <check_is_money>
 79e:	5d 9b       	sbis	0x0b, 5	; 11
 7a0:	fe cf       	rjmp	.-4      	; 0x79e <__stack+0x33f>
 7a2:	0c b9       	out	0x0c, r16	; 12
 7a4:	5d 9b       	sbis	0x0b, 5	; 11
 7a6:	fe cf       	rjmp	.-4      	; 0x7a4 <__stack+0x345>
 7a8:	fc b8       	out	0x0c, r15	; 12
 7aa:	5d 9b       	sbis	0x0b, 5	; 11
 7ac:	fe cf       	rjmp	.-4      	; 0x7aa <__stack+0x34b>
 7ae:	bc b8       	out	0x0c, r11	; 12
 7b0:	5d 9b       	sbis	0x0b, 5	; 11
 7b2:	fe cf       	rjmp	.-4      	; 0x7b0 <__stack+0x351>
 7b4:	ac b8       	out	0x0c, r10	; 12
 7b6:	5d 9b       	sbis	0x0b, 5	; 11
 7b8:	fe cf       	rjmp	.-4      	; 0x7b6 <__stack+0x357>
 7ba:	88 ee       	ldi	r24, 0xE8	; 232
 7bc:	8c b9       	out	0x0c, r24	; 12
 7be:	e3 c2       	rjmp	.+1478   	; 0xd86 <__stack+0x927>
 7c0:	4e dc       	rcall	.-1892   	; 0x5e <check_is_money>
 7c2:	10 92 ba 00 	sts	0x00BA, r1
 7c6:	0e c0       	rjmp	.+28     	; 0x7e4 <__stack+0x385>
 7c8:	e0 91 ba 00 	lds	r30, 0x00BA
 7cc:	f0 e0       	ldi	r31, 0x00	; 0
 7ce:	e5 54       	subi	r30, 0x45	; 69
 7d0:	ff 4f       	sbci	r31, 0xFF	; 255
 7d2:	e0 81       	ld	r30, Z
 7d4:	5d 9b       	sbis	0x0b, 5	; 11
 7d6:	fe cf       	rjmp	.-4      	; 0x7d4 <__stack+0x375>
 7d8:	ec b9       	out	0x0c, r30	; 12
 7da:	80 91 ba 00 	lds	r24, 0x00BA
 7de:	8f 5f       	subi	r24, 0xFF	; 255
 7e0:	80 93 ba 00 	sts	0x00BA, r24
 7e4:	80 91 ba 00 	lds	r24, 0x00BA
 7e8:	85 30       	cpi	r24, 0x05	; 5
 7ea:	70 f3       	brcs	.-36     	; 0x7c8 <__stack+0x369>
 7ec:	cc c2       	rjmp	.+1432   	; 0xd86 <__stack+0x927>
 7ee:	10 92 b9 00 	sts	0x00B9, r1
 7f2:	10 92 b8 00 	sts	0x00B8, r1
 7f6:	33 dc       	rcall	.-1946   	; 0x5e <check_is_money>
 7f8:	80 91 bc 00 	lds	r24, 0x00BC
 7fc:	85 30       	cpi	r24, 0x05	; 5
 7fe:	09 f0       	breq	.+2      	; 0x802 <__stack+0x3a3>
 800:	c3 c2       	rjmp	.+1414   	; 0xd88 <__stack+0x929>
 802:	80 91 bd 00 	lds	r24, 0x00BD
 806:	81 31       	cpi	r24, 0x11	; 17
 808:	09 f0       	breq	.+2      	; 0x80c <__stack+0x3ad>
 80a:	be c2       	rjmp	.+1404   	; 0xd88 <__stack+0x929>
 80c:	80 91 be 00 	lds	r24, 0x00BE
 810:	87 32       	cpi	r24, 0x27	; 39
 812:	09 f0       	breq	.+2      	; 0x816 <__stack+0x3b7>
 814:	b9 c2       	rjmp	.+1394   	; 0xd88 <__stack+0x929>
 816:	80 91 bf 00 	lds	r24, 0x00BF
 81a:	86 35       	cpi	r24, 0x56	; 86
 81c:	09 f0       	breq	.+2      	; 0x820 <__stack+0x3c1>
 81e:	b4 c2       	rjmp	.+1384   	; 0xd88 <__stack+0x929>
 820:	1e dc       	rcall	.-1988   	; 0x5e <check_is_money>
 822:	5d 9b       	sbis	0x0b, 5	; 11
 824:	fe cf       	rjmp	.-4      	; 0x822 <__stack+0x3c3>
 826:	0c b9       	out	0x0c, r16	; 12
 828:	5d 9b       	sbis	0x0b, 5	; 11
 82a:	fe cf       	rjmp	.-4      	; 0x828 <__stack+0x3c9>
 82c:	fc b8       	out	0x0c, r15	; 12
 82e:	5d 9b       	sbis	0x0b, 5	; 11
 830:	fe cf       	rjmp	.-4      	; 0x82e <__stack+0x3cf>
 832:	8c b8       	out	0x0c, r8	; 12
 834:	5d 9b       	sbis	0x0b, 5	; 11
 836:	fe cf       	rjmp	.-4      	; 0x834 <__stack+0x3d5>
 838:	7c b8       	out	0x0c, r7	; 12
 83a:	5d 9b       	sbis	0x0b, 5	; 11
 83c:	fe cf       	rjmp	.-4      	; 0x83a <__stack+0x3db>
 83e:	9c b8       	out	0x0c, r9	; 12
 840:	0e dc       	rcall	.-2020   	; 0x5e <check_is_money>
 842:	10 e0       	ldi	r17, 0x00	; 0
 844:	10 92 ba 00 	sts	0x00BA, r1
 848:	0e c0       	rjmp	.+28     	; 0x866 <__stack+0x407>
 84a:	e0 91 ba 00 	lds	r30, 0x00BA
 84e:	5f 9b       	sbis	0x0b, 7	; 11
 850:	fe cf       	rjmp	.-4      	; 0x84e <__stack+0x3ef>
 852:	8c b1       	in	r24, 0x0c	; 12
 854:	f0 e0       	ldi	r31, 0x00	; 0
 856:	e5 54       	subi	r30, 0x45	; 69
 858:	ff 4f       	sbci	r31, 0xFF	; 255
 85a:	80 83       	st	Z, r24
 85c:	80 91 ba 00 	lds	r24, 0x00BA
 860:	8f 5f       	subi	r24, 0xFF	; 255
 862:	80 93 ba 00 	sts	0x00BA, r24
 866:	80 91 ba 00 	lds	r24, 0x00BA
 86a:	85 30       	cpi	r24, 0x05	; 5
 86c:	70 f3       	brcs	.-36     	; 0x84a <__stack+0x3eb>
 86e:	f7 db       	rcall	.-2066   	; 0x5e <check_is_money>
 870:	5d 9b       	sbis	0x0b, 5	; 11
 872:	fe cf       	rjmp	.-4      	; 0x870 <__stack+0x411>
 874:	0c b9       	out	0x0c, r16	; 12
 876:	5d 9b       	sbis	0x0b, 5	; 11
 878:	fe cf       	rjmp	.-4      	; 0x876 <__stack+0x417>
 87a:	fc b8       	out	0x0c, r15	; 12
 87c:	5d 9b       	sbis	0x0b, 5	; 11
 87e:	fe cf       	rjmp	.-4      	; 0x87c <__stack+0x41d>
 880:	8c b8       	out	0x0c, r8	; 12
 882:	5d 9b       	sbis	0x0b, 5	; 11
 884:	fe cf       	rjmp	.-4      	; 0x882 <__stack+0x423>
 886:	7c b8       	out	0x0c, r7	; 12
 888:	5d 9b       	sbis	0x0b, 5	; 11
 88a:	fe cf       	rjmp	.-4      	; 0x888 <__stack+0x429>
 88c:	9c b8       	out	0x0c, r9	; 12
 88e:	e7 db       	rcall	.-2098   	; 0x5e <check_is_money>
 890:	1f 5f       	subi	r17, 0xFF	; 255
 892:	14 30       	cpi	r17, 0x04	; 4
 894:	b9 f6       	brne	.-82     	; 0x844 <__stack+0x3e5>
 896:	e3 db       	rcall	.-2106   	; 0x5e <check_is_money>
 898:	10 92 ba 00 	sts	0x00BA, r1
 89c:	0e c0       	rjmp	.+28     	; 0x8ba <__stack+0x45b>
 89e:	e0 91 ba 00 	lds	r30, 0x00BA
 8a2:	5f 9b       	sbis	0x0b, 7	; 11
 8a4:	fe cf       	rjmp	.-4      	; 0x8a2 <__stack+0x443>
 8a6:	8c b1       	in	r24, 0x0c	; 12
 8a8:	f0 e0       	ldi	r31, 0x00	; 0
 8aa:	e5 54       	subi	r30, 0x45	; 69
 8ac:	ff 4f       	sbci	r31, 0xFF	; 255
 8ae:	80 83       	st	Z, r24
 8b0:	80 91 ba 00 	lds	r24, 0x00BA
 8b4:	8f 5f       	subi	r24, 0xFF	; 255
 8b6:	80 93 ba 00 	sts	0x00BA, r24
 8ba:	80 91 ba 00 	lds	r24, 0x00BA
 8be:	85 30       	cpi	r24, 0x05	; 5
 8c0:	70 f3       	brcs	.-36     	; 0x89e <__stack+0x43f>
 8c2:	cd db       	rcall	.-2150   	; 0x5e <check_is_money>
 8c4:	80 91 b4 00 	lds	r24, 0x00B4
 8c8:	8a 30       	cpi	r24, 0x0A	; 10
 8ca:	e0 f0       	brcs	.+56     	; 0x904 <__stack+0x4a5>
 8cc:	c8 db       	rcall	.-2160   	; 0x5e <check_is_money>
 8ce:	5d 9b       	sbis	0x0b, 5	; 11
 8d0:	fe cf       	rjmp	.-4      	; 0x8ce <__stack+0x46f>
 8d2:	0c b9       	out	0x0c, r16	; 12
 8d4:	5d 9b       	sbis	0x0b, 5	; 11
 8d6:	fe cf       	rjmp	.-4      	; 0x8d4 <__stack+0x475>
 8d8:	86 e0       	ldi	r24, 0x06	; 6
 8da:	8c b9       	out	0x0c, r24	; 12
 8dc:	5d 9b       	sbis	0x0b, 5	; 11
 8de:	fe cf       	rjmp	.-4      	; 0x8dc <__stack+0x47d>
 8e0:	83 e1       	ldi	r24, 0x13	; 19
 8e2:	8c b9       	out	0x0c, r24	; 12
 8e4:	5d 9b       	sbis	0x0b, 5	; 11
 8e6:	fe cf       	rjmp	.-4      	; 0x8e4 <__stack+0x485>
 8e8:	9c b8       	out	0x0c, r9	; 12
 8ea:	5d 9b       	sbis	0x0b, 5	; 11
 8ec:	fe cf       	rjmp	.-4      	; 0x8ea <__stack+0x48b>
 8ee:	80 eb       	ldi	r24, 0xB0	; 176
 8f0:	8c b9       	out	0x0c, r24	; 12
 8f2:	5d 9b       	sbis	0x0b, 5	; 11
 8f4:	fe cf       	rjmp	.-4      	; 0x8f2 <__stack+0x493>
 8f6:	8b ef       	ldi	r24, 0xFB	; 251
 8f8:	8c b9       	out	0x0c, r24	; 12
 8fa:	b1 db       	rcall	.-2206   	; 0x5e <check_is_money>
 8fc:	80 91 b4 00 	lds	r24, 0x00B4
 900:	8a 50       	subi	r24, 0x0A	; 10
 902:	62 c0       	rjmp	.+196    	; 0x9c8 <__stack+0x569>
 904:	80 91 b4 00 	lds	r24, 0x00B4
 908:	85 30       	cpi	r24, 0x05	; 5
 90a:	e8 f0       	brcs	.+58     	; 0x946 <__stack+0x4e7>
 90c:	a8 db       	rcall	.-2224   	; 0x5e <check_is_money>
 90e:	5d 9b       	sbis	0x0b, 5	; 11
 910:	fe cf       	rjmp	.-4      	; 0x90e <__stack+0x4af>
 912:	0c b9       	out	0x0c, r16	; 12
 914:	5d 9b       	sbis	0x0b, 5	; 11
 916:	fe cf       	rjmp	.-4      	; 0x914 <__stack+0x4b5>
 918:	86 e0       	ldi	r24, 0x06	; 6
 91a:	8c b9       	out	0x0c, r24	; 12
 91c:	5d 9b       	sbis	0x0b, 5	; 11
 91e:	fe cf       	rjmp	.-4      	; 0x91c <__stack+0x4bd>
 920:	83 e1       	ldi	r24, 0x13	; 19
 922:	8c b9       	out	0x0c, r24	; 12
 924:	5d 9b       	sbis	0x0b, 5	; 11
 926:	fe cf       	rjmp	.-4      	; 0x924 <__stack+0x4c5>
 928:	83 e6       	ldi	r24, 0x63	; 99
 92a:	8c b9       	out	0x0c, r24	; 12
 92c:	5d 9b       	sbis	0x0b, 5	; 11
 92e:	fe cf       	rjmp	.-4      	; 0x92c <__stack+0x4cd>
 930:	80 eb       	ldi	r24, 0xB0	; 176
 932:	8c b9       	out	0x0c, r24	; 12
 934:	5d 9b       	sbis	0x0b, 5	; 11
 936:	fe cf       	rjmp	.-4      	; 0x934 <__stack+0x4d5>
 938:	8b ef       	ldi	r24, 0xFB	; 251
 93a:	8c b9       	out	0x0c, r24	; 12
 93c:	90 db       	rcall	.-2272   	; 0x5e <check_is_money>
 93e:	80 91 b4 00 	lds	r24, 0x00B4
 942:	85 50       	subi	r24, 0x05	; 5
 944:	41 c0       	rjmp	.+130    	; 0x9c8 <__stack+0x569>
 946:	80 91 b4 00 	lds	r24, 0x00B4
 94a:	82 30       	cpi	r24, 0x02	; 2
 94c:	e8 f0       	brcs	.+58     	; 0x988 <__stack+0x529>
 94e:	87 db       	rcall	.-2290   	; 0x5e <check_is_money>
 950:	5d 9b       	sbis	0x0b, 5	; 11
 952:	fe cf       	rjmp	.-4      	; 0x950 <__stack+0x4f1>
 954:	0c b9       	out	0x0c, r16	; 12
 956:	5d 9b       	sbis	0x0b, 5	; 11
 958:	fe cf       	rjmp	.-4      	; 0x956 <__stack+0x4f7>
 95a:	86 e0       	ldi	r24, 0x06	; 6
 95c:	8c b9       	out	0x0c, r24	; 12
 95e:	5d 9b       	sbis	0x0b, 5	; 11
 960:	fe cf       	rjmp	.-4      	; 0x95e <__stack+0x4ff>
 962:	83 e1       	ldi	r24, 0x13	; 19
 964:	8c b9       	out	0x0c, r24	; 12
 966:	5d 9b       	sbis	0x0b, 5	; 11
 968:	fe cf       	rjmp	.-4      	; 0x966 <__stack+0x507>
 96a:	82 e6       	ldi	r24, 0x62	; 98
 96c:	8c b9       	out	0x0c, r24	; 12
 96e:	5d 9b       	sbis	0x0b, 5	; 11
 970:	fe cf       	rjmp	.-4      	; 0x96e <__stack+0x50f>
 972:	80 eb       	ldi	r24, 0xB0	; 176
 974:	8c b9       	out	0x0c, r24	; 12
 976:	5d 9b       	sbis	0x0b, 5	; 11
 978:	fe cf       	rjmp	.-4      	; 0x976 <__stack+0x517>
 97a:	8b ef       	ldi	r24, 0xFB	; 251
 97c:	8c b9       	out	0x0c, r24	; 12
 97e:	6f db       	rcall	.-2338   	; 0x5e <check_is_money>
 980:	80 91 b4 00 	lds	r24, 0x00B4
 984:	82 50       	subi	r24, 0x02	; 2
 986:	20 c0       	rjmp	.+64     	; 0x9c8 <__stack+0x569>
 988:	80 91 b4 00 	lds	r24, 0x00B4
 98c:	88 23       	and	r24, r24
 98e:	f1 f0       	breq	.+60     	; 0x9cc <__stack+0x56d>
 990:	66 db       	rcall	.-2356   	; 0x5e <check_is_money>
 992:	5d 9b       	sbis	0x0b, 5	; 11
 994:	fe cf       	rjmp	.-4      	; 0x992 <__stack+0x533>
 996:	0c b9       	out	0x0c, r16	; 12
 998:	5d 9b       	sbis	0x0b, 5	; 11
 99a:	fe cf       	rjmp	.-4      	; 0x998 <__stack+0x539>
 99c:	86 e0       	ldi	r24, 0x06	; 6
 99e:	8c b9       	out	0x0c, r24	; 12
 9a0:	5d 9b       	sbis	0x0b, 5	; 11
 9a2:	fe cf       	rjmp	.-4      	; 0x9a0 <__stack+0x541>
 9a4:	83 e1       	ldi	r24, 0x13	; 19
 9a6:	8c b9       	out	0x0c, r24	; 12
 9a8:	5d 9b       	sbis	0x0b, 5	; 11
 9aa:	fe cf       	rjmp	.-4      	; 0x9a8 <__stack+0x549>
 9ac:	81 e6       	ldi	r24, 0x61	; 97
 9ae:	8c b9       	out	0x0c, r24	; 12
 9b0:	5d 9b       	sbis	0x0b, 5	; 11
 9b2:	fe cf       	rjmp	.-4      	; 0x9b0 <__stack+0x551>
 9b4:	80 eb       	ldi	r24, 0xB0	; 176
 9b6:	8c b9       	out	0x0c, r24	; 12
 9b8:	5d 9b       	sbis	0x0b, 5	; 11
 9ba:	fe cf       	rjmp	.-4      	; 0x9b8 <__stack+0x559>
 9bc:	8b ef       	ldi	r24, 0xFB	; 251
 9be:	8c b9       	out	0x0c, r24	; 12
 9c0:	4e db       	rcall	.-2404   	; 0x5e <check_is_money>
 9c2:	80 91 b4 00 	lds	r24, 0x00B4
 9c6:	81 50       	subi	r24, 0x01	; 1
 9c8:	80 93 b4 00 	sts	0x00B4, r24
 9cc:	48 db       	rcall	.-2416   	; 0x5e <check_is_money>
 9ce:	10 92 ba 00 	sts	0x00BA, r1
 9d2:	0e c0       	rjmp	.+28     	; 0x9f0 <__stack+0x591>
 9d4:	e0 91 ba 00 	lds	r30, 0x00BA
 9d8:	5f 9b       	sbis	0x0b, 7	; 11
 9da:	fe cf       	rjmp	.-4      	; 0x9d8 <__stack+0x579>
 9dc:	8c b1       	in	r24, 0x0c	; 12
 9de:	f0 e0       	ldi	r31, 0x00	; 0
 9e0:	e5 54       	subi	r30, 0x45	; 69
 9e2:	ff 4f       	sbci	r31, 0xFF	; 255
 9e4:	80 83       	st	Z, r24
 9e6:	80 91 ba 00 	lds	r24, 0x00BA
 9ea:	8f 5f       	subi	r24, 0xFF	; 255
 9ec:	80 93 ba 00 	sts	0x00BA, r24
 9f0:	80 91 ba 00 	lds	r24, 0x00BA
 9f4:	85 30       	cpi	r24, 0x05	; 5
 9f6:	70 f3       	brcs	.-36     	; 0x9d4 <__stack+0x575>
 9f8:	32 db       	rcall	.-2460   	; 0x5e <check_is_money>
 9fa:	5d 9b       	sbis	0x0b, 5	; 11
 9fc:	fe cf       	rjmp	.-4      	; 0x9fa <__stack+0x59b>
 9fe:	0c b9       	out	0x0c, r16	; 12
 a00:	5d 9b       	sbis	0x0b, 5	; 11
 a02:	fe cf       	rjmp	.-4      	; 0xa00 <__stack+0x5a1>
 a04:	fc b8       	out	0x0c, r15	; 12
 a06:	5d 9b       	sbis	0x0b, 5	; 11
 a08:	fe cf       	rjmp	.-4      	; 0xa06 <__stack+0x5a7>
 a0a:	2c b8       	out	0x0c, r2	; 12
 a0c:	5d 9b       	sbis	0x0b, 5	; 11
 a0e:	fe cf       	rjmp	.-4      	; 0xa0c <__stack+0x5ad>
 a10:	8a ea       	ldi	r24, 0xAA	; 170
 a12:	8c b9       	out	0x0c, r24	; 12
 a14:	5d 9b       	sbis	0x0b, 5	; 11
 a16:	fe cf       	rjmp	.-4      	; 0xa14 <__stack+0x5b5>
 a18:	fc b8       	out	0x0c, r15	; 12
 a1a:	21 db       	rcall	.-2494   	; 0x5e <check_is_money>
 a1c:	10 92 ba 00 	sts	0x00BA, r1
 a20:	0e c0       	rjmp	.+28     	; 0xa3e <__stack+0x5df>
 a22:	e0 91 ba 00 	lds	r30, 0x00BA
 a26:	5f 9b       	sbis	0x0b, 7	; 11
 a28:	fe cf       	rjmp	.-4      	; 0xa26 <__stack+0x5c7>
 a2a:	8c b1       	in	r24, 0x0c	; 12
 a2c:	f0 e0       	ldi	r31, 0x00	; 0
 a2e:	e5 54       	subi	r30, 0x45	; 69
 a30:	ff 4f       	sbci	r31, 0xFF	; 255
 a32:	80 83       	st	Z, r24
 a34:	80 91 ba 00 	lds	r24, 0x00BA
 a38:	8f 5f       	subi	r24, 0xFF	; 255
 a3a:	80 93 ba 00 	sts	0x00BA, r24
 a3e:	80 91 ba 00 	lds	r24, 0x00BA
 a42:	85 30       	cpi	r24, 0x05	; 5
 a44:	70 f3       	brcs	.-36     	; 0xa22 <__stack+0x5c3>
 a46:	0b db       	rcall	.-2538   	; 0x5e <check_is_money>
 a48:	5d 9b       	sbis	0x0b, 5	; 11
 a4a:	fe cf       	rjmp	.-4      	; 0xa48 <__stack+0x5e9>
 a4c:	0c b9       	out	0x0c, r16	; 12
 a4e:	5d 9b       	sbis	0x0b, 5	; 11
 a50:	fe cf       	rjmp	.-4      	; 0xa4e <__stack+0x5ef>
 a52:	fc b8       	out	0x0c, r15	; 12
 a54:	5d 9b       	sbis	0x0b, 5	; 11
 a56:	fe cf       	rjmp	.-4      	; 0xa54 <__stack+0x5f5>
 a58:	dc b8       	out	0x0c, r13	; 12
 a5a:	5d 9b       	sbis	0x0b, 5	; 11
 a5c:	fe cf       	rjmp	.-4      	; 0xa5a <__stack+0x5fb>
 a5e:	cc b8       	out	0x0c, r12	; 12
 a60:	5d 9b       	sbis	0x0b, 5	; 11
 a62:	fe cf       	rjmp	.-4      	; 0xa60 <__stack+0x601>
 a64:	ec b8       	out	0x0c, r14	; 12
 a66:	fb da       	rcall	.-2570   	; 0x5e <check_is_money>
 a68:	10 92 ba 00 	sts	0x00BA, r1
 a6c:	0e c0       	rjmp	.+28     	; 0xa8a <__stack+0x62b>
 a6e:	e0 91 ba 00 	lds	r30, 0x00BA
 a72:	5f 9b       	sbis	0x0b, 7	; 11
 a74:	fe cf       	rjmp	.-4      	; 0xa72 <__stack+0x613>
 a76:	8c b1       	in	r24, 0x0c	; 12
 a78:	f0 e0       	ldi	r31, 0x00	; 0
 a7a:	e5 54       	subi	r30, 0x45	; 69
 a7c:	ff 4f       	sbci	r31, 0xFF	; 255
 a7e:	80 83       	st	Z, r24
 a80:	80 91 ba 00 	lds	r24, 0x00BA
 a84:	8f 5f       	subi	r24, 0xFF	; 255
 a86:	80 93 ba 00 	sts	0x00BA, r24
 a8a:	80 91 ba 00 	lds	r24, 0x00BA
 a8e:	85 30       	cpi	r24, 0x05	; 5
 a90:	70 f3       	brcs	.-36     	; 0xa6e <__stack+0x60f>
 a92:	e5 da       	rcall	.-2614   	; 0x5e <check_is_money>
 a94:	5d 9b       	sbis	0x0b, 5	; 11
 a96:	fe cf       	rjmp	.-4      	; 0xa94 <__stack+0x635>
 a98:	0c b9       	out	0x0c, r16	; 12
 a9a:	5d 9b       	sbis	0x0b, 5	; 11
 a9c:	fe cf       	rjmp	.-4      	; 0xa9a <__stack+0x63b>
 a9e:	fc b8       	out	0x0c, r15	; 12
 aa0:	5d 9b       	sbis	0x0b, 5	; 11
 aa2:	fe cf       	rjmp	.-4      	; 0xaa0 <__stack+0x641>
 aa4:	dc b8       	out	0x0c, r13	; 12
 aa6:	5d 9b       	sbis	0x0b, 5	; 11
 aa8:	fe cf       	rjmp	.-4      	; 0xaa6 <__stack+0x647>
 aaa:	cc b8       	out	0x0c, r12	; 12
 aac:	5d 9b       	sbis	0x0b, 5	; 11
 aae:	fe cf       	rjmp	.-4      	; 0xaac <__stack+0x64d>
 ab0:	ec b8       	out	0x0c, r14	; 12
 ab2:	d5 da       	rcall	.-2646   	; 0x5e <check_is_money>
 ab4:	10 92 ba 00 	sts	0x00BA, r1
 ab8:	0e c0       	rjmp	.+28     	; 0xad6 <__stack+0x677>
 aba:	e0 91 ba 00 	lds	r30, 0x00BA
 abe:	5f 9b       	sbis	0x0b, 7	; 11
 ac0:	fe cf       	rjmp	.-4      	; 0xabe <__stack+0x65f>
 ac2:	8c b1       	in	r24, 0x0c	; 12
 ac4:	f0 e0       	ldi	r31, 0x00	; 0
 ac6:	e5 54       	subi	r30, 0x45	; 69
 ac8:	ff 4f       	sbci	r31, 0xFF	; 255
 aca:	80 83       	st	Z, r24
 acc:	80 91 ba 00 	lds	r24, 0x00BA
 ad0:	8f 5f       	subi	r24, 0xFF	; 255
 ad2:	80 93 ba 00 	sts	0x00BA, r24
 ad6:	80 91 ba 00 	lds	r24, 0x00BA
 ada:	85 30       	cpi	r24, 0x05	; 5
 adc:	70 f3       	brcs	.-36     	; 0xaba <__stack+0x65b>
 ade:	bf da       	rcall	.-2690   	; 0x5e <check_is_money>
 ae0:	5d 9b       	sbis	0x0b, 5	; 11
 ae2:	fe cf       	rjmp	.-4      	; 0xae0 <__stack+0x681>
 ae4:	0c b9       	out	0x0c, r16	; 12
 ae6:	5d 9b       	sbis	0x0b, 5	; 11
 ae8:	fe cf       	rjmp	.-4      	; 0xae6 <__stack+0x687>
 aea:	fc b8       	out	0x0c, r15	; 12
 aec:	5d 9b       	sbis	0x0b, 5	; 11
 aee:	fe cf       	rjmp	.-4      	; 0xaec <__stack+0x68d>
 af0:	dc b8       	out	0x0c, r13	; 12
 af2:	5d 9b       	sbis	0x0b, 5	; 11
 af4:	fe cf       	rjmp	.-4      	; 0xaf2 <__stack+0x693>
 af6:	cc b8       	out	0x0c, r12	; 12
 af8:	5d 9b       	sbis	0x0b, 5	; 11
 afa:	fe cf       	rjmp	.-4      	; 0xaf8 <__stack+0x699>
 afc:	ec b8       	out	0x0c, r14	; 12
 afe:	af da       	rcall	.-2722   	; 0x5e <check_is_money>
 b00:	10 92 ba 00 	sts	0x00BA, r1
 b04:	0e c0       	rjmp	.+28     	; 0xb22 <__stack+0x6c3>
 b06:	e0 91 ba 00 	lds	r30, 0x00BA
 b0a:	5f 9b       	sbis	0x0b, 7	; 11
 b0c:	fe cf       	rjmp	.-4      	; 0xb0a <__stack+0x6ab>
 b0e:	8c b1       	in	r24, 0x0c	; 12
 b10:	f0 e0       	ldi	r31, 0x00	; 0
 b12:	e5 54       	subi	r30, 0x45	; 69
 b14:	ff 4f       	sbci	r31, 0xFF	; 255
 b16:	80 83       	st	Z, r24
 b18:	80 91 ba 00 	lds	r24, 0x00BA
 b1c:	8f 5f       	subi	r24, 0xFF	; 255
 b1e:	80 93 ba 00 	sts	0x00BA, r24
 b22:	80 91 ba 00 	lds	r24, 0x00BA
 b26:	85 30       	cpi	r24, 0x05	; 5
 b28:	70 f3       	brcs	.-36     	; 0xb06 <__stack+0x6a7>
 b2a:	99 da       	rcall	.-2766   	; 0x5e <check_is_money>
 b2c:	5d 9b       	sbis	0x0b, 5	; 11
 b2e:	fe cf       	rjmp	.-4      	; 0xb2c <__stack+0x6cd>
 b30:	0c b9       	out	0x0c, r16	; 12
 b32:	5d 9b       	sbis	0x0b, 5	; 11
 b34:	fe cf       	rjmp	.-4      	; 0xb32 <__stack+0x6d3>
 b36:	fc b8       	out	0x0c, r15	; 12
 b38:	5d 9b       	sbis	0x0b, 5	; 11
 b3a:	fe cf       	rjmp	.-4      	; 0xb38 <__stack+0x6d9>
 b3c:	dc b8       	out	0x0c, r13	; 12
 b3e:	5d 9b       	sbis	0x0b, 5	; 11
 b40:	fe cf       	rjmp	.-4      	; 0xb3e <__stack+0x6df>
 b42:	cc b8       	out	0x0c, r12	; 12
 b44:	5d 9b       	sbis	0x0b, 5	; 11
 b46:	fe cf       	rjmp	.-4      	; 0xb44 <__stack+0x6e5>
 b48:	ec b8       	out	0x0c, r14	; 12
 b4a:	89 da       	rcall	.-2798   	; 0x5e <check_is_money>
 b4c:	10 92 ba 00 	sts	0x00BA, r1
 b50:	0e c0       	rjmp	.+28     	; 0xb6e <__stack+0x70f>
 b52:	e0 91 ba 00 	lds	r30, 0x00BA
 b56:	5f 9b       	sbis	0x0b, 7	; 11
 b58:	fe cf       	rjmp	.-4      	; 0xb56 <__stack+0x6f7>
 b5a:	8c b1       	in	r24, 0x0c	; 12
 b5c:	f0 e0       	ldi	r31, 0x00	; 0
 b5e:	e5 54       	subi	r30, 0x45	; 69
 b60:	ff 4f       	sbci	r31, 0xFF	; 255
 b62:	80 83       	st	Z, r24
 b64:	80 91 ba 00 	lds	r24, 0x00BA
 b68:	8f 5f       	subi	r24, 0xFF	; 255
 b6a:	80 93 ba 00 	sts	0x00BA, r24
 b6e:	80 91 ba 00 	lds	r24, 0x00BA
 b72:	85 30       	cpi	r24, 0x05	; 5
 b74:	70 f3       	brcs	.-36     	; 0xb52 <__stack+0x6f3>
 b76:	73 da       	rcall	.-2842   	; 0x5e <check_is_money>
 b78:	5d 9b       	sbis	0x0b, 5	; 11
 b7a:	fe cf       	rjmp	.-4      	; 0xb78 <__stack+0x719>
 b7c:	0c b9       	out	0x0c, r16	; 12
 b7e:	5d 9b       	sbis	0x0b, 5	; 11
 b80:	fe cf       	rjmp	.-4      	; 0xb7e <__stack+0x71f>
 b82:	fc b8       	out	0x0c, r15	; 12
 b84:	5d 9b       	sbis	0x0b, 5	; 11
 b86:	fe cf       	rjmp	.-4      	; 0xb84 <__stack+0x725>
 b88:	dc b8       	out	0x0c, r13	; 12
 b8a:	5d 9b       	sbis	0x0b, 5	; 11
 b8c:	fe cf       	rjmp	.-4      	; 0xb8a <__stack+0x72b>
 b8e:	cc b8       	out	0x0c, r12	; 12
 b90:	5d 9b       	sbis	0x0b, 5	; 11
 b92:	fe cf       	rjmp	.-4      	; 0xb90 <__stack+0x731>
 b94:	ec b8       	out	0x0c, r14	; 12
 b96:	63 da       	rcall	.-2874   	; 0x5e <check_is_money>
 b98:	10 92 ba 00 	sts	0x00BA, r1
 b9c:	0e c0       	rjmp	.+28     	; 0xbba <__stack+0x75b>
 b9e:	e0 91 ba 00 	lds	r30, 0x00BA
 ba2:	5f 9b       	sbis	0x0b, 7	; 11
 ba4:	fe cf       	rjmp	.-4      	; 0xba2 <__stack+0x743>
 ba6:	8c b1       	in	r24, 0x0c	; 12
 ba8:	f0 e0       	ldi	r31, 0x00	; 0
 baa:	e5 54       	subi	r30, 0x45	; 69
 bac:	ff 4f       	sbci	r31, 0xFF	; 255
 bae:	80 83       	st	Z, r24
 bb0:	80 91 ba 00 	lds	r24, 0x00BA
 bb4:	8f 5f       	subi	r24, 0xFF	; 255
 bb6:	80 93 ba 00 	sts	0x00BA, r24
 bba:	80 91 ba 00 	lds	r24, 0x00BA
 bbe:	85 30       	cpi	r24, 0x05	; 5
 bc0:	70 f3       	brcs	.-36     	; 0xb9e <__stack+0x73f>
 bc2:	4d da       	rcall	.-2918   	; 0x5e <check_is_money>
 bc4:	5d 9b       	sbis	0x0b, 5	; 11
 bc6:	fe cf       	rjmp	.-4      	; 0xbc4 <__stack+0x765>
 bc8:	0c b9       	out	0x0c, r16	; 12
 bca:	5d 9b       	sbis	0x0b, 5	; 11
 bcc:	fe cf       	rjmp	.-4      	; 0xbca <__stack+0x76b>
 bce:	fc b8       	out	0x0c, r15	; 12
 bd0:	5d 9b       	sbis	0x0b, 5	; 11
 bd2:	fe cf       	rjmp	.-4      	; 0xbd0 <__stack+0x771>
 bd4:	dc b8       	out	0x0c, r13	; 12
 bd6:	5d 9b       	sbis	0x0b, 5	; 11
 bd8:	fe cf       	rjmp	.-4      	; 0xbd6 <__stack+0x777>
 bda:	cc b8       	out	0x0c, r12	; 12
 bdc:	5d 9b       	sbis	0x0b, 5	; 11
 bde:	fe cf       	rjmp	.-4      	; 0xbdc <__stack+0x77d>
 be0:	ec b8       	out	0x0c, r14	; 12
 be2:	3d da       	rcall	.-2950   	; 0x5e <check_is_money>
 be4:	10 92 ba 00 	sts	0x00BA, r1
 be8:	0e c0       	rjmp	.+28     	; 0xc06 <__stack+0x7a7>
 bea:	e0 91 ba 00 	lds	r30, 0x00BA
 bee:	5f 9b       	sbis	0x0b, 7	; 11
 bf0:	fe cf       	rjmp	.-4      	; 0xbee <__stack+0x78f>
 bf2:	8c b1       	in	r24, 0x0c	; 12
 bf4:	f0 e0       	ldi	r31, 0x00	; 0
 bf6:	e5 54       	subi	r30, 0x45	; 69
 bf8:	ff 4f       	sbci	r31, 0xFF	; 255
 bfa:	80 83       	st	Z, r24
 bfc:	80 91 ba 00 	lds	r24, 0x00BA
 c00:	8f 5f       	subi	r24, 0xFF	; 255
 c02:	80 93 ba 00 	sts	0x00BA, r24
 c06:	80 91 ba 00 	lds	r24, 0x00BA
 c0a:	85 30       	cpi	r24, 0x05	; 5
 c0c:	70 f3       	brcs	.-36     	; 0xbea <__stack+0x78b>
 c0e:	27 da       	rcall	.-2994   	; 0x5e <check_is_money>
 c10:	5d 9b       	sbis	0x0b, 5	; 11
 c12:	fe cf       	rjmp	.-4      	; 0xc10 <__stack+0x7b1>
 c14:	0c b9       	out	0x0c, r16	; 12
 c16:	5d 9b       	sbis	0x0b, 5	; 11
 c18:	fe cf       	rjmp	.-4      	; 0xc16 <__stack+0x7b7>
 c1a:	fc b8       	out	0x0c, r15	; 12
 c1c:	5d 9b       	sbis	0x0b, 5	; 11
 c1e:	fe cf       	rjmp	.-4      	; 0xc1c <__stack+0x7bd>
 c20:	85 e1       	ldi	r24, 0x15	; 21
 c22:	8c b9       	out	0x0c, r24	; 12
 c24:	5d 9b       	sbis	0x0b, 5	; 11
 c26:	fe cf       	rjmp	.-4      	; 0xc24 <__stack+0x7c5>
 c28:	83 e0       	ldi	r24, 0x03	; 3
 c2a:	8c b9       	out	0x0c, r24	; 12
 c2c:	5d 9b       	sbis	0x0b, 5	; 11
 c2e:	fe cf       	rjmp	.-4      	; 0xc2c <__stack+0x7cd>
 c30:	80 e1       	ldi	r24, 0x10	; 16
 c32:	8c b9       	out	0x0c, r24	; 12
 c34:	14 da       	rcall	.-3032   	; 0x5e <check_is_money>
 c36:	10 92 ba 00 	sts	0x00BA, r1
 c3a:	0e c0       	rjmp	.+28     	; 0xc58 <__stack+0x7f9>
 c3c:	e0 91 ba 00 	lds	r30, 0x00BA
 c40:	5f 9b       	sbis	0x0b, 7	; 11
 c42:	fe cf       	rjmp	.-4      	; 0xc40 <__stack+0x7e1>
 c44:	8c b1       	in	r24, 0x0c	; 12
 c46:	f0 e0       	ldi	r31, 0x00	; 0
 c48:	e5 54       	subi	r30, 0x45	; 69
 c4a:	ff 4f       	sbci	r31, 0xFF	; 255
 c4c:	80 83       	st	Z, r24
 c4e:	80 91 ba 00 	lds	r24, 0x00BA
 c52:	8f 5f       	subi	r24, 0xFF	; 255
 c54:	80 93 ba 00 	sts	0x00BA, r24
 c58:	80 91 ba 00 	lds	r24, 0x00BA
 c5c:	85 30       	cpi	r24, 0x05	; 5
 c5e:	70 f3       	brcs	.-36     	; 0xc3c <__stack+0x7dd>
 c60:	fe d9       	rcall	.-3076   	; 0x5e <check_is_money>
 c62:	5d 9b       	sbis	0x0b, 5	; 11
 c64:	fe cf       	rjmp	.-4      	; 0xc62 <__stack+0x803>
 c66:	0c b9       	out	0x0c, r16	; 12
 c68:	5d 9b       	sbis	0x0b, 5	; 11
 c6a:	fe cf       	rjmp	.-4      	; 0xc68 <__stack+0x809>
 c6c:	fc b8       	out	0x0c, r15	; 12
 c6e:	5d 9b       	sbis	0x0b, 5	; 11
 c70:	fe cf       	rjmp	.-4      	; 0xc6e <__stack+0x80f>
 c72:	6c b8       	out	0x0c, r6	; 12
 c74:	5d 9b       	sbis	0x0b, 5	; 11
 c76:	fe cf       	rjmp	.-4      	; 0xc74 <__stack+0x815>
 c78:	5c b8       	out	0x0c, r5	; 12
 c7a:	5d 9b       	sbis	0x0b, 5	; 11
 c7c:	fe cf       	rjmp	.-4      	; 0xc7a <__stack+0x81b>
 c7e:	4c b8       	out	0x0c, r4	; 12
 c80:	ee d9       	rcall	.-3108   	; 0x5e <check_is_money>
 c82:	10 92 ba 00 	sts	0x00BA, r1
 c86:	0e c0       	rjmp	.+28     	; 0xca4 <__stack+0x845>
 c88:	e0 91 ba 00 	lds	r30, 0x00BA
 c8c:	5f 9b       	sbis	0x0b, 7	; 11
 c8e:	fe cf       	rjmp	.-4      	; 0xc8c <__stack+0x82d>
 c90:	8c b1       	in	r24, 0x0c	; 12
 c92:	f0 e0       	ldi	r31, 0x00	; 0
 c94:	e5 54       	subi	r30, 0x45	; 69
 c96:	ff 4f       	sbci	r31, 0xFF	; 255
 c98:	80 83       	st	Z, r24
 c9a:	80 91 ba 00 	lds	r24, 0x00BA
 c9e:	8f 5f       	subi	r24, 0xFF	; 255
 ca0:	80 93 ba 00 	sts	0x00BA, r24
 ca4:	80 91 ba 00 	lds	r24, 0x00BA
 ca8:	85 30       	cpi	r24, 0x05	; 5
 caa:	70 f3       	brcs	.-36     	; 0xc88 <__stack+0x829>
 cac:	d8 d9       	rcall	.-3152   	; 0x5e <check_is_money>
 cae:	5d 9b       	sbis	0x0b, 5	; 11
 cb0:	fe cf       	rjmp	.-4      	; 0xcae <__stack+0x84f>
 cb2:	0c b9       	out	0x0c, r16	; 12
 cb4:	5d 9b       	sbis	0x0b, 5	; 11
 cb6:	fe cf       	rjmp	.-4      	; 0xcb4 <__stack+0x855>
 cb8:	fc b8       	out	0x0c, r15	; 12
 cba:	5d 9b       	sbis	0x0b, 5	; 11
 cbc:	fe cf       	rjmp	.-4      	; 0xcba <__stack+0x85b>
 cbe:	6c b8       	out	0x0c, r6	; 12
 cc0:	5d 9b       	sbis	0x0b, 5	; 11
 cc2:	fe cf       	rjmp	.-4      	; 0xcc0 <__stack+0x861>
 cc4:	5c b8       	out	0x0c, r5	; 12
 cc6:	5d 9b       	sbis	0x0b, 5	; 11
 cc8:	fe cf       	rjmp	.-4      	; 0xcc6 <__stack+0x867>
 cca:	4c b8       	out	0x0c, r4	; 12
 ccc:	c8 d9       	rcall	.-3184   	; 0x5e <check_is_money>
 cce:	10 92 ba 00 	sts	0x00BA, r1
 cd2:	0e c0       	rjmp	.+28     	; 0xcf0 <__stack+0x891>
 cd4:	e0 91 ba 00 	lds	r30, 0x00BA
 cd8:	5f 9b       	sbis	0x0b, 7	; 11
 cda:	fe cf       	rjmp	.-4      	; 0xcd8 <__stack+0x879>
 cdc:	8c b1       	in	r24, 0x0c	; 12
 cde:	f0 e0       	ldi	r31, 0x00	; 0
 ce0:	e5 54       	subi	r30, 0x45	; 69
 ce2:	ff 4f       	sbci	r31, 0xFF	; 255
 ce4:	80 83       	st	Z, r24
 ce6:	80 91 ba 00 	lds	r24, 0x00BA
 cea:	8f 5f       	subi	r24, 0xFF	; 255
 cec:	80 93 ba 00 	sts	0x00BA, r24
 cf0:	80 91 ba 00 	lds	r24, 0x00BA
 cf4:	85 30       	cpi	r24, 0x05	; 5
 cf6:	70 f3       	brcs	.-36     	; 0xcd4 <__stack+0x875>
 cf8:	b2 d9       	rcall	.-3228   	; 0x5e <check_is_money>
 cfa:	80 91 bc 00 	lds	r24, 0x00BC
 cfe:	85 30       	cpi	r24, 0x05	; 5
 d00:	09 f0       	breq	.+2      	; 0xd04 <__stack+0x8a5>
 d02:	41 c0       	rjmp	.+130    	; 0xd86 <__stack+0x927>
 d04:	80 91 bd 00 	lds	r24, 0x00BD
 d08:	81 31       	cpi	r24, 0x11	; 17
 d0a:	e9 f5       	brne	.+122    	; 0xd86 <__stack+0x927>
 d0c:	80 91 be 00 	lds	r24, 0x00BE
 d10:	87 32       	cpi	r24, 0x27	; 39
 d12:	c9 f5       	brne	.+114    	; 0xd86 <__stack+0x927>
 d14:	80 91 bf 00 	lds	r24, 0x00BF
 d18:	86 35       	cpi	r24, 0x56	; 86
 d1a:	a9 f5       	brne	.+106    	; 0xd86 <__stack+0x927>
 d1c:	a0 d9       	rcall	.-3264   	; 0x5e <check_is_money>
 d1e:	80 91 b4 00 	lds	r24, 0x00B4
 d22:	88 23       	and	r24, r24
 d24:	79 f5       	brne	.+94     	; 0xd84 <__stack+0x925>
 d26:	9b d9       	rcall	.-3274   	; 0x5e <check_is_money>
 d28:	80 91 b6 00 	lds	r24, 0x00B6
 d2c:	88 23       	and	r24, r24
 d2e:	91 f0       	breq	.+36     	; 0xd54 <__stack+0x8f5>
 d30:	96 d9       	rcall	.-3284   	; 0x5e <check_is_money>
 d32:	5d 9b       	sbis	0x0b, 5	; 11
 d34:	fe cf       	rjmp	.-4      	; 0xd32 <__stack+0x8d3>
 d36:	0c b9       	out	0x0c, r16	; 12
 d38:	5d 9b       	sbis	0x0b, 5	; 11
 d3a:	fe cf       	rjmp	.-4      	; 0xd38 <__stack+0x8d9>
 d3c:	fc b8       	out	0x0c, r15	; 12
 d3e:	5d 9b       	sbis	0x0b, 5	; 11
 d40:	fe cf       	rjmp	.-4      	; 0xd3e <__stack+0x8df>
 d42:	bc b8       	out	0x0c, r11	; 12
 d44:	5d 9b       	sbis	0x0b, 5	; 11
 d46:	fe cf       	rjmp	.-4      	; 0xd44 <__stack+0x8e5>
 d48:	ac b8       	out	0x0c, r10	; 12
 d4a:	5d 9b       	sbis	0x0b, 5	; 11
 d4c:	fe cf       	rjmp	.-4      	; 0xd4a <__stack+0x8eb>
 d4e:	88 ee       	ldi	r24, 0xE8	; 232
 d50:	8c b9       	out	0x0c, r24	; 12
 d52:	16 c0       	rjmp	.+44     	; 0xd80 <__stack+0x921>
 d54:	84 d9       	rcall	.-3320   	; 0x5e <check_is_money>
 d56:	10 92 ba 00 	sts	0x00BA, r1
 d5a:	0e c0       	rjmp	.+28     	; 0xd78 <__stack+0x919>
 d5c:	e0 91 ba 00 	lds	r30, 0x00BA
 d60:	f0 e0       	ldi	r31, 0x00	; 0
 d62:	e5 54       	subi	r30, 0x45	; 69
 d64:	ff 4f       	sbci	r31, 0xFF	; 255
 d66:	e0 81       	ld	r30, Z
 d68:	5d 9b       	sbis	0x0b, 5	; 11
 d6a:	fe cf       	rjmp	.-4      	; 0xd68 <__stack+0x909>
 d6c:	ec b9       	out	0x0c, r30	; 12
 d6e:	80 91 ba 00 	lds	r24, 0x00BA
 d72:	8f 5f       	subi	r24, 0xFF	; 255
 d74:	80 93 ba 00 	sts	0x00BA, r24
 d78:	80 91 ba 00 	lds	r24, 0x00BA
 d7c:	85 30       	cpi	r24, 0x05	; 5
 d7e:	70 f3       	brcs	.-36     	; 0xd5c <__stack+0x8fd>
 d80:	6e d9       	rcall	.-3364   	; 0x5e <check_is_money>
 d82:	6d d9       	rcall	.-3366   	; 0x5e <check_is_money>
 d84:	6c d9       	rcall	.-3368   	; 0x5e <check_is_money>
 d86:	6b d9       	rcall	.-3370   	; 0x5e <check_is_money>
 d88:	6a d9       	rcall	.-3372   	; 0x5e <check_is_money>
 d8a:	69 d9       	rcall	.-3374   	; 0x5e <check_is_money>
 d8c:	68 d9       	rcall	.-3376   	; 0x5e <check_is_money>
 d8e:	24 cc       	rjmp	.-1976   	; 0x5d8 <__stack+0x179>

00000d90 <uart_init>:
 d90:	90 bd       	out	0x20, r25	; 32
 d92:	89 b9       	out	0x09, r24	; 9
 d94:	88 e1       	ldi	r24, 0x18	; 24
 d96:	8a b9       	out	0x0a, r24	; 10
 d98:	86 ea       	ldi	r24, 0xA6	; 166
 d9a:	80 bd       	out	0x20, r24	; 32
 d9c:	08 95       	ret

00000d9e <uart_putc>:
 d9e:	5d 9b       	sbis	0x0b, 5	; 11
 da0:	fe cf       	rjmp	.-4      	; 0xd9e <uart_putc>
 da2:	8c b9       	out	0x0c, r24	; 12
 da4:	08 95       	ret

00000da6 <uart_ischar>:
 da6:	8b b1       	in	r24, 0x0b	; 11
 da8:	80 78       	andi	r24, 0x80	; 128
 daa:	08 95       	ret

00000dac <uart_getc>:
 dac:	5f 9b       	sbis	0x0b, 7	; 11
 dae:	fe cf       	rjmp	.-4      	; 0xdac <uart_getc>
 db0:	8c b1       	in	r24, 0x0c	; 12
 db2:	08 95       	ret

00000db4 <_exit>:
 db4:	f8 94       	cli

00000db6 <__stop_program>:
 db6:	ff cf       	rjmp	.-2      	; 0xdb6 <__stop_program>
