
034_rozmieniarka_pararell.elf:     file format elf32-avr

Sections:
Idx Name          Size      VMA       LMA       File off  Algn
  0 .text         000001b6  00000000  00000000  00000094  2**1
                  CONTENTS, ALLOC, LOAD, READONLY, CODE
  1 .data         00000006  00800060  000001b6  0000024a  2**0
                  CONTENTS, ALLOC, LOAD, DATA
  2 .bss          00000007  00800066  00800066  00000250  2**0
                  ALLOC

Disassembly of section .text:

00000000 <__vectors>:
   0:	12 c0       	rjmp	.+36     	; 0x26 <__ctors_end>
   2:	2c c0       	rjmp	.+88     	; 0x5c <__bad_interrupt>
   4:	2b c0       	rjmp	.+86     	; 0x5c <__bad_interrupt>
   6:	2a c0       	rjmp	.+84     	; 0x5c <__bad_interrupt>
   8:	29 c0       	rjmp	.+82     	; 0x5c <__bad_interrupt>
   a:	28 c0       	rjmp	.+80     	; 0x5c <__bad_interrupt>
   c:	27 c0       	rjmp	.+78     	; 0x5c <__bad_interrupt>
   e:	26 c0       	rjmp	.+76     	; 0x5c <__bad_interrupt>
  10:	25 c0       	rjmp	.+74     	; 0x5c <__bad_interrupt>
  12:	24 c0       	rjmp	.+72     	; 0x5c <__bad_interrupt>
  14:	23 c0       	rjmp	.+70     	; 0x5c <__bad_interrupt>
  16:	22 c0       	rjmp	.+68     	; 0x5c <__bad_interrupt>
  18:	21 c0       	rjmp	.+66     	; 0x5c <__bad_interrupt>
  1a:	20 c0       	rjmp	.+64     	; 0x5c <__bad_interrupt>
  1c:	1f c0       	rjmp	.+62     	; 0x5c <__bad_interrupt>
  1e:	1e c0       	rjmp	.+60     	; 0x5c <__bad_interrupt>
  20:	1d c0       	rjmp	.+58     	; 0x5c <__bad_interrupt>
  22:	1c c0       	rjmp	.+56     	; 0x5c <__bad_interrupt>
  24:	1b c0       	rjmp	.+54     	; 0x5c <__bad_interrupt>

00000026 <__ctors_end>:
  26:	11 24       	eor	r1, r1
  28:	1f be       	out	0x3f, r1	; 63
  2a:	cf e5       	ldi	r28, 0x5F	; 95
  2c:	d4 e0       	ldi	r29, 0x04	; 4
  2e:	de bf       	out	0x3e, r29	; 62
  30:	cd bf       	out	0x3d, r28	; 61

00000032 <__do_copy_data>:
  32:	10 e0       	ldi	r17, 0x00	; 0
  34:	a0 e6       	ldi	r26, 0x60	; 96
  36:	b0 e0       	ldi	r27, 0x00	; 0
  38:	e6 eb       	ldi	r30, 0xB6	; 182
  3a:	f1 e0       	ldi	r31, 0x01	; 1
  3c:	02 c0       	rjmp	.+4      	; 0x42 <.do_copy_data_start>

0000003e <.do_copy_data_loop>:
  3e:	05 90       	lpm	r0, Z+
  40:	0d 92       	st	X+, r0

00000042 <.do_copy_data_start>:
  42:	a6 36       	cpi	r26, 0x66	; 102
  44:	b1 07       	cpc	r27, r17
  46:	d9 f7       	brne	.-10     	; 0x3e <.do_copy_data_loop>

00000048 <__do_clear_bss>:
  48:	10 e0       	ldi	r17, 0x00	; 0
  4a:	a6 e6       	ldi	r26, 0x66	; 102
  4c:	b0 e0       	ldi	r27, 0x00	; 0
  4e:	01 c0       	rjmp	.+2      	; 0x52 <.do_clear_bss_start>

00000050 <.do_clear_bss_loop>:
  50:	1d 92       	st	X+, r1

00000052 <.do_clear_bss_start>:
  52:	ad 36       	cpi	r26, 0x6D	; 109
  54:	b1 07       	cpc	r27, r17
  56:	e1 f7       	brne	.-8      	; 0x50 <.do_clear_bss_loop>
  58:	5f d0       	rcall	.+190    	; 0x118 <main>
  5a:	ab c0       	rjmp	.+342    	; 0x1b2 <_exit>

0000005c <__bad_interrupt>:
  5c:	d1 cf       	rjmp	.-94     	; 0x0 <__vectors>

0000005e <nabij_kase>:
  5e:	68 2f       	mov	r22, r24
  60:	10 92 68 00 	sts	0x0068, r1
  64:	ac 9a       	sbi	0x15, 4	; 21
  66:	ad 98       	cbi	0x15, 5	; 21
  68:	81 e0       	ldi	r24, 0x01	; 1
  6a:	80 93 61 00 	sts	0x0061, r24
  6e:	40 ed       	ldi	r20, 0xD0	; 208
  70:	57 e0       	ldi	r21, 0x07	; 7
  72:	20 ea       	ldi	r18, 0xA0	; 160
  74:	3f e0       	ldi	r19, 0x0F	; 15
  76:	71 e0       	ldi	r23, 0x01	; 1
  78:	47 c0       	rjmp	.+142    	; 0x108 <nabij_kase+0xaa>
  7a:	ca 01       	movw	r24, r20
  7c:	01 97       	sbiw	r24, 0x01	; 1
  7e:	f1 f7       	brne	.-4      	; 0x7c <nabij_kase+0x1e>
  80:	80 91 66 00 	lds	r24, 0x0066
  84:	90 91 67 00 	lds	r25, 0x0067
  88:	01 96       	adiw	r24, 0x01	; 1
  8a:	90 93 67 00 	sts	0x0067, r25
  8e:	80 93 66 00 	sts	0x0066, r24
  92:	b2 99       	sbic	0x16, 2	; 22
  94:	18 c0       	rjmp	.+48     	; 0xc6 <nabij_kase+0x68>
  96:	80 91 60 00 	lds	r24, 0x0060
  9a:	88 23       	and	r24, r24
  9c:	a1 f0       	breq	.+40     	; 0xc6 <nabij_kase+0x68>
  9e:	c9 01       	movw	r24, r18
  a0:	01 97       	sbiw	r24, 0x01	; 1
  a2:	f1 f7       	brne	.-4      	; 0xa0 <nabij_kase+0x42>
  a4:	b2 99       	sbic	0x16, 2	; 22
  a6:	0f c0       	rjmp	.+30     	; 0xc6 <nabij_kase+0x68>
  a8:	80 91 60 00 	lds	r24, 0x0060
  ac:	88 23       	and	r24, r24
  ae:	59 f0       	breq	.+22     	; 0xc6 <nabij_kase+0x68>
  b0:	10 92 60 00 	sts	0x0060, r1
  b4:	80 91 68 00 	lds	r24, 0x0068
  b8:	8f 5f       	subi	r24, 0xFF	; 255
  ba:	80 93 68 00 	sts	0x0068, r24
  be:	10 92 67 00 	sts	0x0067, r1
  c2:	10 92 66 00 	sts	0x0066, r1
  c6:	b2 9b       	sbis	0x16, 2	; 22
  c8:	0f c0       	rjmp	.+30     	; 0xe8 <nabij_kase+0x8a>
  ca:	80 91 60 00 	lds	r24, 0x0060
  ce:	88 23       	and	r24, r24
  d0:	59 f4       	brne	.+22     	; 0xe8 <nabij_kase+0x8a>
  d2:	c9 01       	movw	r24, r18
  d4:	01 97       	sbiw	r24, 0x01	; 1
  d6:	f1 f7       	brne	.-4      	; 0xd4 <nabij_kase+0x76>
  d8:	b2 9b       	sbis	0x16, 2	; 22
  da:	06 c0       	rjmp	.+12     	; 0xe8 <nabij_kase+0x8a>
  dc:	80 91 60 00 	lds	r24, 0x0060
  e0:	88 23       	and	r24, r24
  e2:	11 f4       	brne	.+4      	; 0xe8 <nabij_kase+0x8a>
  e4:	70 93 60 00 	sts	0x0060, r23
  e8:	80 91 66 00 	lds	r24, 0x0066
  ec:	90 91 67 00 	lds	r25, 0x0067
  f0:	80 54       	subi	r24, 0x40	; 64
  f2:	9f 41       	sbci	r25, 0x1F	; 31
  f4:	18 f0       	brcs	.+6      	; 0xfc <nabij_kase+0x9e>
  f6:	ad 9a       	sbi	0x15, 5	; 21
  f8:	ac 9a       	sbi	0x15, 4	; 21
  fa:	fd cf       	rjmp	.-6      	; 0xf6 <nabij_kase+0x98>
  fc:	80 91 68 00 	lds	r24, 0x0068
 100:	86 17       	cp	r24, r22
 102:	11 f4       	brne	.+4      	; 0x108 <nabij_kase+0xaa>
 104:	10 92 61 00 	sts	0x0061, r1
 108:	80 91 61 00 	lds	r24, 0x0061
 10c:	88 23       	and	r24, r24
 10e:	09 f0       	breq	.+2      	; 0x112 <nabij_kase+0xb4>
 110:	b4 cf       	rjmp	.-152    	; 0x7a <nabij_kase+0x1c>
 112:	ac 98       	cbi	0x15, 4	; 21
 114:	ad 9a       	sbi	0x15, 5	; 21
 116:	08 95       	ret

00000118 <main>:
 118:	cf 93       	push	r28
 11a:	df 93       	push	r29
 11c:	8d 98       	cbi	0x11, 5	; 17
 11e:	8e 98       	cbi	0x11, 6	; 17
 120:	8f 98       	cbi	0x11, 7	; 17
 122:	b8 98       	cbi	0x17, 0	; 23
 124:	ba 98       	cbi	0x17, 2	; 23
 126:	b9 98       	cbi	0x17, 1	; 23
 128:	95 9a       	sbi	0x12, 5	; 18
 12a:	96 9a       	sbi	0x12, 6	; 18
 12c:	97 9a       	sbi	0x12, 7	; 18
 12e:	c0 9a       	sbi	0x18, 0	; 24
 130:	c1 9a       	sbi	0x18, 1	; 24
 132:	c2 9a       	sbi	0x18, 2	; 24
 134:	a5 9a       	sbi	0x14, 5	; 20
 136:	a4 9a       	sbi	0x14, 4	; 20
 138:	ac 98       	cbi	0x15, 4	; 21
 13a:	ad 9a       	sbi	0x15, 5	; 21
 13c:	88 e8       	ldi	r24, 0x88	; 136
 13e:	93 e1       	ldi	r25, 0x13	; 19
 140:	28 ec       	ldi	r18, 0xC8	; 200
 142:	30 e0       	ldi	r19, 0x00	; 0
 144:	f9 01       	movw	r30, r18
 146:	31 97       	sbiw	r30, 0x01	; 1
 148:	f1 f7       	brne	.-4      	; 0x146 <main+0x2e>
 14a:	01 97       	sbiw	r24, 0x01	; 1
 14c:	d9 f7       	brne	.-10     	; 0x144 <main+0x2c>
 14e:	c0 ea       	ldi	r28, 0xA0	; 160
 150:	df e0       	ldi	r29, 0x0F	; 15
 152:	b1 9b       	sbis	0x16, 1	; 22
 154:	02 c0       	rjmp	.+4      	; 0x15a <main+0x42>
 156:	04 c0       	rjmp	.+8      	; 0x160 <main+0x48>
 158:	ad 98       	cbi	0x15, 5	; 21
 15a:	b1 9b       	sbis	0x16, 1	; 22
 15c:	fd cf       	rjmp	.-6      	; 0x158 <main+0x40>
 15e:	ad 9a       	sbi	0x15, 5	; 21
 160:	85 99       	sbic	0x10, 5	; 16
 162:	08 c0       	rjmp	.+16     	; 0x174 <main+0x5c>
 164:	ce 01       	movw	r24, r28
 166:	01 97       	sbiw	r24, 0x01	; 1
 168:	f1 f7       	brne	.-4      	; 0x166 <main+0x4e>
 16a:	85 99       	sbic	0x10, 5	; 16
 16c:	03 c0       	rjmp	.+6      	; 0x174 <main+0x5c>
 16e:	80 91 62 00 	lds	r24, 0x0062
 172:	75 df       	rcall	.-278    	; 0x5e <nabij_kase>
 174:	86 99       	sbic	0x10, 6	; 16
 176:	08 c0       	rjmp	.+16     	; 0x188 <main+0x70>
 178:	ce 01       	movw	r24, r28
 17a:	01 97       	sbiw	r24, 0x01	; 1
 17c:	f1 f7       	brne	.-4      	; 0x17a <main+0x62>
 17e:	86 99       	sbic	0x10, 6	; 16
 180:	03 c0       	rjmp	.+6      	; 0x188 <main+0x70>
 182:	80 91 63 00 	lds	r24, 0x0063
 186:	6b df       	rcall	.-298    	; 0x5e <nabij_kase>
 188:	87 99       	sbic	0x10, 7	; 16
 18a:	08 c0       	rjmp	.+16     	; 0x19c <main+0x84>
 18c:	ce 01       	movw	r24, r28
 18e:	01 97       	sbiw	r24, 0x01	; 1
 190:	f1 f7       	brne	.-4      	; 0x18e <main+0x76>
 192:	87 99       	sbic	0x10, 7	; 16
 194:	03 c0       	rjmp	.+6      	; 0x19c <main+0x84>
 196:	80 91 64 00 	lds	r24, 0x0064
 19a:	61 df       	rcall	.-318    	; 0x5e <nabij_kase>
 19c:	b0 99       	sbic	0x16, 0	; 22
 19e:	d9 cf       	rjmp	.-78     	; 0x152 <main+0x3a>
 1a0:	ce 01       	movw	r24, r28
 1a2:	01 97       	sbiw	r24, 0x01	; 1
 1a4:	f1 f7       	brne	.-4      	; 0x1a2 <main+0x8a>
 1a6:	b0 99       	sbic	0x16, 0	; 22
 1a8:	d4 cf       	rjmp	.-88     	; 0x152 <main+0x3a>
 1aa:	80 91 65 00 	lds	r24, 0x0065
 1ae:	57 df       	rcall	.-338    	; 0x5e <nabij_kase>
 1b0:	d0 cf       	rjmp	.-96     	; 0x152 <main+0x3a>

000001b2 <_exit>:
 1b2:	f8 94       	cli

000001b4 <__stop_program>:
 1b4:	ff cf       	rjmp	.-2      	; 0x1b4 <__stop_program>
