
043_Tetris_v_test_final.elf:     file format elf32-avr

Sections:
Idx Name          Size      VMA       LMA       File off  Algn
  0 .text         0000016e  00000000  00000000  00000074  2**1
                  CONTENTS, ALLOC, LOAD, READONLY, CODE
  1 .bss          00000001  00800060  00800060  000001e2  2**0
                  ALLOC

Disassembly of section .text:

00000000 <__vectors>:
   0:	0c 94 2a 00 	jmp	0x54	; 0x54 <__ctors_end>
   4:	0c 94 3c 00 	jmp	0x78	; 0x78 <__bad_interrupt>
   8:	0c 94 3c 00 	jmp	0x78	; 0x78 <__bad_interrupt>
   c:	0c 94 3c 00 	jmp	0x78	; 0x78 <__bad_interrupt>
  10:	0c 94 3c 00 	jmp	0x78	; 0x78 <__bad_interrupt>
  14:	0c 94 3c 00 	jmp	0x78	; 0x78 <__bad_interrupt>
  18:	0c 94 3c 00 	jmp	0x78	; 0x78 <__bad_interrupt>
  1c:	0c 94 3c 00 	jmp	0x78	; 0x78 <__bad_interrupt>
  20:	0c 94 3c 00 	jmp	0x78	; 0x78 <__bad_interrupt>
  24:	0c 94 3c 00 	jmp	0x78	; 0x78 <__bad_interrupt>
  28:	0c 94 3c 00 	jmp	0x78	; 0x78 <__bad_interrupt>
  2c:	0c 94 3c 00 	jmp	0x78	; 0x78 <__bad_interrupt>
  30:	0c 94 3c 00 	jmp	0x78	; 0x78 <__bad_interrupt>
  34:	0c 94 3c 00 	jmp	0x78	; 0x78 <__bad_interrupt>
  38:	0c 94 3c 00 	jmp	0x78	; 0x78 <__bad_interrupt>
  3c:	0c 94 3c 00 	jmp	0x78	; 0x78 <__bad_interrupt>
  40:	0c 94 3c 00 	jmp	0x78	; 0x78 <__bad_interrupt>
  44:	0c 94 3c 00 	jmp	0x78	; 0x78 <__bad_interrupt>
  48:	0c 94 3c 00 	jmp	0x78	; 0x78 <__bad_interrupt>
  4c:	0c 94 3c 00 	jmp	0x78	; 0x78 <__bad_interrupt>
  50:	0c 94 3c 00 	jmp	0x78	; 0x78 <__bad_interrupt>

00000054 <__ctors_end>:
  54:	11 24       	eor	r1, r1
  56:	1f be       	out	0x3f, r1	; 63
  58:	cf e5       	ldi	r28, 0x5F	; 95
  5a:	d4 e0       	ldi	r29, 0x04	; 4
  5c:	de bf       	out	0x3e, r29	; 62
  5e:	cd bf       	out	0x3d, r28	; 61

00000060 <__do_clear_bss>:
  60:	10 e0       	ldi	r17, 0x00	; 0
  62:	a0 e6       	ldi	r26, 0x60	; 96
  64:	b0 e0       	ldi	r27, 0x00	; 0
  66:	01 c0       	rjmp	.+2      	; 0x6a <.do_clear_bss_start>

00000068 <.do_clear_bss_loop>:
  68:	1d 92       	st	X+, r1

0000006a <.do_clear_bss_start>:
  6a:	a1 36       	cpi	r26, 0x61	; 97
  6c:	b1 07       	cpc	r27, r17
  6e:	e1 f7       	brne	.-8      	; 0x68 <.do_clear_bss_loop>
  70:	0e 94 89 00 	call	0x112	; 0x112 <main>
  74:	0c 94 b5 00 	jmp	0x16a	; 0x16a <_exit>

00000078 <__bad_interrupt>:
  78:	0c 94 00 00 	jmp	0	; 0x0 <__vectors>

0000007c <ioInit>:
  7c:	88 e8       	ldi	r24, 0x88	; 136
  7e:	93 e1       	ldi	r25, 0x13	; 19
  80:	20 e9       	ldi	r18, 0x90	; 144
  82:	31 e0       	ldi	r19, 0x01	; 1
  84:	f9 01       	movw	r30, r18
  86:	31 97       	sbiw	r30, 0x01	; 1
  88:	f1 f7       	brne	.-4      	; 0x86 <ioInit+0xa>
  8a:	01 97       	sbiw	r24, 0x01	; 1
  8c:	d9 f7       	brne	.-10     	; 0x84 <ioInit+0x8>
  8e:	d3 98       	cbi	0x1a, 3	; 26
  90:	d2 98       	cbi	0x1a, 2	; 26
  92:	d1 98       	cbi	0x1a, 1	; 26
  94:	d0 98       	cbi	0x1a, 0	; 26
  96:	d4 98       	cbi	0x1a, 4	; 26
  98:	a3 98       	cbi	0x14, 3	; 20
  9a:	a2 98       	cbi	0x14, 2	; 20
  9c:	a1 98       	cbi	0x14, 1	; 20
  9e:	a0 98       	cbi	0x14, 0	; 20
  a0:	bc 98       	cbi	0x17, 4	; 23
  a2:	bd 98       	cbi	0x17, 5	; 23
  a4:	bf 98       	cbi	0x17, 7	; 23
  a6:	bb 98       	cbi	0x17, 3	; 23
  a8:	db 9a       	sbi	0x1b, 3	; 27
  aa:	da 9a       	sbi	0x1b, 2	; 27
  ac:	d9 9a       	sbi	0x1b, 1	; 27
  ae:	d8 9a       	sbi	0x1b, 0	; 27
  b0:	dc 9a       	sbi	0x1b, 4	; 27
  b2:	ab 9a       	sbi	0x15, 3	; 21
  b4:	aa 9a       	sbi	0x15, 2	; 21
  b6:	a9 9a       	sbi	0x15, 1	; 21
  b8:	a8 9a       	sbi	0x15, 0	; 21
  ba:	c4 9a       	sbi	0x18, 4	; 24
  bc:	c5 9a       	sbi	0x18, 5	; 24
  be:	c7 9a       	sbi	0x18, 7	; 24
  c0:	c3 9a       	sbi	0x18, 3	; 24
  c2:	be 9a       	sbi	0x17, 6	; 23
  c4:	a6 9a       	sbi	0x14, 6	; 20
  c6:	a7 9a       	sbi	0x14, 7	; 20
  c8:	d7 9a       	sbi	0x1a, 7	; 26
  ca:	d6 9a       	sbi	0x1a, 6	; 26
  cc:	d5 9a       	sbi	0x1a, 5	; 26
  ce:	a5 9a       	sbi	0x14, 5	; 20
  d0:	8f 9a       	sbi	0x11, 7	; 17
  d2:	8e 9a       	sbi	0x11, 6	; 17
  d4:	8d 9a       	sbi	0x11, 5	; 17
  d6:	8c 9a       	sbi	0x11, 4	; 17
  d8:	ba 9a       	sbi	0x17, 2	; 23
  da:	8a 9a       	sbi	0x11, 2	; 17
  dc:	a4 9a       	sbi	0x14, 4	; 20
  de:	8b 9a       	sbi	0x11, 3	; 17
  e0:	c6 98       	cbi	0x18, 6	; 24
  e2:	ae 98       	cbi	0x15, 6	; 21
  e4:	af 98       	cbi	0x15, 7	; 21
  e6:	df 98       	cbi	0x1b, 7	; 27
  e8:	de 98       	cbi	0x1b, 6	; 27
  ea:	dd 98       	cbi	0x1b, 5	; 27
  ec:	ad 98       	cbi	0x15, 5	; 21
  ee:	97 98       	cbi	0x12, 7	; 18
  f0:	96 98       	cbi	0x12, 6	; 18
  f2:	95 98       	cbi	0x12, 5	; 18
  f4:	94 98       	cbi	0x12, 4	; 18
  f6:	c2 98       	cbi	0x18, 2	; 24
  f8:	92 98       	cbi	0x12, 2	; 18
  fa:	ac 9a       	sbi	0x15, 4	; 21
  fc:	93 98       	cbi	0x12, 3	; 18
  fe:	88 e8       	ldi	r24, 0x88	; 136
 100:	93 e1       	ldi	r25, 0x13	; 19
 102:	20 e9       	ldi	r18, 0x90	; 144
 104:	31 e0       	ldi	r19, 0x01	; 1
 106:	f9 01       	movw	r30, r18
 108:	31 97       	sbiw	r30, 0x01	; 1
 10a:	f1 f7       	brne	.-4      	; 0x108 <ioInit+0x8c>
 10c:	01 97       	sbiw	r24, 0x01	; 1
 10e:	d9 f7       	brne	.-10     	; 0x106 <ioInit+0x8a>
 110:	08 95       	ret

00000112 <main>:
 112:	0e 94 3e 00 	call	0x7c	; 0x7c <ioInit>
 116:	10 bc       	out	0x20, r1	; 32
 118:	87 e6       	ldi	r24, 0x67	; 103
 11a:	89 b9       	out	0x09, r24	; 9
 11c:	88 e1       	ldi	r24, 0x18	; 24
 11e:	8a b9       	out	0x0a, r24	; 10
 120:	86 e8       	ldi	r24, 0x86	; 134
 122:	80 bd       	out	0x20, r24	; 32
 124:	10 92 60 00 	sts	0x0060, r1
 128:	20 e0       	ldi	r18, 0x00	; 0
 12a:	40 e9       	ldi	r20, 0x90	; 144
 12c:	51 e0       	ldi	r21, 0x01	; 1
 12e:	5d 9b       	sbis	0x0b, 5	; 11
 130:	fe cf       	rjmp	.-4      	; 0x12e <main+0x1c>
 132:	2c b9       	out	0x0c, r18	; 12
 134:	2f 5f       	subi	r18, 0xFF	; 255
 136:	88 ee       	ldi	r24, 0xE8	; 232
 138:	93 e0       	ldi	r25, 0x03	; 3
 13a:	fa 01       	movw	r30, r20
 13c:	31 97       	sbiw	r30, 0x01	; 1
 13e:	f1 f7       	brne	.-4      	; 0x13c <main+0x2a>
 140:	01 97       	sbiw	r24, 0x01	; 1
 142:	d9 f7       	brne	.-10     	; 0x13a <main+0x28>
 144:	f4 cf       	rjmp	.-24     	; 0x12e <main+0x1c>

00000146 <uart_init>:
 146:	90 bd       	out	0x20, r25	; 32
 148:	89 b9       	out	0x09, r24	; 9
 14a:	88 e1       	ldi	r24, 0x18	; 24
 14c:	8a b9       	out	0x0a, r24	; 10
 14e:	86 e8       	ldi	r24, 0x86	; 134
 150:	80 bd       	out	0x20, r24	; 32
 152:	08 95       	ret

00000154 <uart_putc>:
 154:	5d 9b       	sbis	0x0b, 5	; 11
 156:	fe cf       	rjmp	.-4      	; 0x154 <uart_putc>
 158:	8c b9       	out	0x0c, r24	; 12
 15a:	08 95       	ret

0000015c <uart_ischar>:
 15c:	8b b1       	in	r24, 0x0b	; 11
 15e:	80 78       	andi	r24, 0x80	; 128
 160:	08 95       	ret

00000162 <uart_getc>:
 162:	5f 9b       	sbis	0x0b, 7	; 11
 164:	fe cf       	rjmp	.-4      	; 0x162 <uart_getc>
 166:	8c b1       	in	r24, 0x0c	; 12
 168:	08 95       	ret

0000016a <_exit>:
 16a:	f8 94       	cli

0000016c <__stop_program>:
 16c:	ff cf       	rjmp	.-2      	; 0x16c <__stop_program>
