
034_eba_pulse_1_10_100_100.elf:     file format elf32-avr

Sections:
Idx Name          Size      VMA       LMA       File off  Algn
  0 .text         0000130c  00000000  00000000  00000094  2**1
                  CONTENTS, ALLOC, LOAD, READONLY, CODE
  1 .data         00000008  00800060  0000130c  000013a0  2**0
                  CONTENTS, ALLOC, LOAD, DATA
  2 .bss          00000014  00800068  00800068  000013a8  2**0
                  ALLOC

Disassembly of section .text:

00000000 <__vectors>:
       0:	12 c0       	rjmp	.+36     	; 0x26 <__ctors_end>
       2:	2c c0       	rjmp	.+88     	; 0x5c <__bad_interrupt>
       4:	2b c0       	rjmp	.+86     	; 0x5c <__bad_interrupt>
       6:	2a c0       	rjmp	.+84     	; 0x5c <__bad_interrupt>
       8:	29 c0       	rjmp	.+82     	; 0x5c <__bad_interrupt>
       a:	28 c0       	rjmp	.+80     	; 0x5c <__bad_interrupt>
       c:	27 c0       	rjmp	.+78     	; 0x5c <__bad_interrupt>
       e:	26 c0       	rjmp	.+76     	; 0x5c <__bad_interrupt>
      10:	25 c0       	rjmp	.+74     	; 0x5c <__bad_interrupt>
      12:	24 c0       	rjmp	.+72     	; 0x5c <__bad_interrupt>
      14:	23 c0       	rjmp	.+70     	; 0x5c <__bad_interrupt>
      16:	22 c0       	rjmp	.+68     	; 0x5c <__bad_interrupt>
      18:	21 c0       	rjmp	.+66     	; 0x5c <__bad_interrupt>
      1a:	20 c0       	rjmp	.+64     	; 0x5c <__bad_interrupt>
      1c:	1f c0       	rjmp	.+62     	; 0x5c <__bad_interrupt>
      1e:	1e c0       	rjmp	.+60     	; 0x5c <__bad_interrupt>
      20:	1d c0       	rjmp	.+58     	; 0x5c <__bad_interrupt>
      22:	1c c0       	rjmp	.+56     	; 0x5c <__bad_interrupt>
      24:	1b c0       	rjmp	.+54     	; 0x5c <__bad_interrupt>

00000026 <__ctors_end>:
      26:	11 24       	eor	r1, r1
      28:	1f be       	out	0x3f, r1	; 63
      2a:	cf e5       	ldi	r28, 0x5F	; 95
      2c:	d4 e0       	ldi	r29, 0x04	; 4
      2e:	de bf       	out	0x3e, r29	; 62
      30:	cd bf       	out	0x3d, r28	; 61

00000032 <__do_copy_data>:
      32:	10 e0       	ldi	r17, 0x00	; 0
      34:	a0 e6       	ldi	r26, 0x60	; 96
      36:	b0 e0       	ldi	r27, 0x00	; 0
      38:	ec e0       	ldi	r30, 0x0C	; 12
      3a:	f3 e1       	ldi	r31, 0x13	; 19
      3c:	02 c0       	rjmp	.+4      	; 0x42 <.do_copy_data_start>

0000003e <.do_copy_data_loop>:
      3e:	05 90       	lpm	r0, Z+
      40:	0d 92       	st	X+, r0

00000042 <.do_copy_data_start>:
      42:	a8 36       	cpi	r26, 0x68	; 104
      44:	b1 07       	cpc	r27, r17
      46:	d9 f7       	brne	.-10     	; 0x3e <.do_copy_data_loop>

00000048 <__do_clear_bss>:
      48:	10 e0       	ldi	r17, 0x00	; 0
      4a:	a8 e6       	ldi	r26, 0x68	; 104
      4c:	b0 e0       	ldi	r27, 0x00	; 0
      4e:	01 c0       	rjmp	.+2      	; 0x52 <.do_clear_bss_start>

00000050 <.do_clear_bss_loop>:
      50:	1d 92       	st	X+, r1

00000052 <.do_clear_bss_start>:
      52:	ac 37       	cpi	r26, 0x7C	; 124
      54:	b1 07       	cpc	r27, r17
      56:	e1 f7       	brne	.-8      	; 0x50 <.do_clear_bss_loop>
      58:	14 d0       	rcall	.+40     	; 0x82 <main>
      5a:	56 c9       	rjmp	.-3412   	; 0xfffff308 <__eeprom_end+0xff7ef308>

0000005c <__bad_interrupt>:
      5c:	d1 cf       	rjmp	.-94     	; 0x0 <__vectors>

0000005e <uart_init>:
      5e:	90 bd       	out	0x20, r25	; 32
      60:	89 b9       	out	0x09, r24	; 9
      62:	88 e1       	ldi	r24, 0x18	; 24
      64:	8a b9       	out	0x0a, r24	; 10
      66:	86 ea       	ldi	r24, 0xA6	; 166
      68:	80 bd       	out	0x20, r24	; 32
      6a:	08 95       	ret

0000006c <uart_putc>:
      6c:	5d 9b       	sbis	0x0b, 5	; 11
      6e:	fe cf       	rjmp	.-4      	; 0x6c <uart_putc>
      70:	8c b9       	out	0x0c, r24	; 12
      72:	08 95       	ret

00000074 <uart_ischar>:
      74:	8b b1       	in	r24, 0x0b	; 11
      76:	80 78       	andi	r24, 0x80	; 128
      78:	08 95       	ret

0000007a <uart_getc>:
      7a:	5f 9b       	sbis	0x0b, 7	; 11
      7c:	fe cf       	rjmp	.-4      	; 0x7a <uart_getc>
      7e:	8c b1       	in	r24, 0x0c	; 12
      80:	08 95       	ret

00000082 <main>:
      82:	3f 92       	push	r3
      84:	4f 92       	push	r4
      86:	5f 92       	push	r5
      88:	6f 92       	push	r6
      8a:	7f 92       	push	r7
      8c:	8f 92       	push	r8
      8e:	9f 92       	push	r9
      90:	af 92       	push	r10
      92:	bf 92       	push	r11
      94:	cf 92       	push	r12
      96:	df 92       	push	r13
      98:	ef 92       	push	r14
      9a:	ff 92       	push	r15
      9c:	0f 93       	push	r16
      9e:	1f 93       	push	r17
      a0:	80 e2       	ldi	r24, 0x20	; 32
      a2:	9e e4       	ldi	r25, 0x4E	; 78
      a4:	28 ec       	ldi	r18, 0xC8	; 200
      a6:	30 e0       	ldi	r19, 0x00	; 0
      a8:	f9 01       	movw	r30, r18
      aa:	31 97       	sbiw	r30, 0x01	; 1
      ac:	f1 f7       	brne	.-4      	; 0xaa <main+0x28>
      ae:	01 97       	sbiw	r24, 0x01	; 1
      b0:	d9 f7       	brne	.-10     	; 0xa8 <main+0x26>
      b2:	a5 9a       	sbi	0x14, 5	; 20
      b4:	ad 9a       	sbi	0x15, 5	; 21
      b6:	10 bc       	out	0x20, r1	; 32
      b8:	83 e3       	ldi	r24, 0x33	; 51
      ba:	89 b9       	out	0x09, r24	; 9
      bc:	88 e1       	ldi	r24, 0x18	; 24
      be:	8a b9       	out	0x0a, r24	; 10
      c0:	86 ea       	ldi	r24, 0xA6	; 166
      c2:	80 bd       	out	0x20, r24	; 32
      c4:	80 e2       	ldi	r24, 0x20	; 32
      c6:	9e e4       	ldi	r25, 0x4E	; 78
      c8:	28 ec       	ldi	r18, 0xC8	; 200
      ca:	30 e0       	ldi	r19, 0x00	; 0
      cc:	f9 01       	movw	r30, r18
      ce:	31 97       	sbiw	r30, 0x01	; 1
      d0:	f1 f7       	brne	.-4      	; 0xce <main+0x4c>
      d2:	01 97       	sbiw	r24, 0x01	; 1
      d4:	d9 f7       	brne	.-10     	; 0xcc <main+0x4a>
      d6:	5d 9b       	sbis	0x0b, 5	; 11
      d8:	fe cf       	rjmp	.-4      	; 0xd6 <main+0x54>
      da:	8c ef       	ldi	r24, 0xFC	; 252
      dc:	8c b9       	out	0x0c, r24	; 12
      de:	5d 9b       	sbis	0x0b, 5	; 11
      e0:	fe cf       	rjmp	.-4      	; 0xde <main+0x5c>
      e2:	85 e0       	ldi	r24, 0x05	; 5
      e4:	8c b9       	out	0x0c, r24	; 12
      e6:	5d 9b       	sbis	0x0b, 5	; 11
      e8:	fe cf       	rjmp	.-4      	; 0xe6 <main+0x64>
      ea:	81 e1       	ldi	r24, 0x11	; 17
      ec:	8c b9       	out	0x0c, r24	; 12
      ee:	5d 9b       	sbis	0x0b, 5	; 11
      f0:	fe cf       	rjmp	.-4      	; 0xee <main+0x6c>
      f2:	87 e2       	ldi	r24, 0x27	; 39
      f4:	8c b9       	out	0x0c, r24	; 12
      f6:	5d 9b       	sbis	0x0b, 5	; 11
      f8:	fe cf       	rjmp	.-4      	; 0xf6 <main+0x74>
      fa:	86 e5       	ldi	r24, 0x56	; 86
      fc:	8c b9       	out	0x0c, r24	; 12
      fe:	88 ee       	ldi	r24, 0xE8	; 232
     100:	93 e0       	ldi	r25, 0x03	; 3
     102:	28 ec       	ldi	r18, 0xC8	; 200
     104:	30 e0       	ldi	r19, 0x00	; 0
     106:	f9 01       	movw	r30, r18
     108:	31 97       	sbiw	r30, 0x01	; 1
     10a:	f1 f7       	brne	.-4      	; 0x108 <main+0x86>
     10c:	01 97       	sbiw	r24, 0x01	; 1
     10e:	d9 f7       	brne	.-10     	; 0x106 <main+0x84>
     110:	5d 9b       	sbis	0x0b, 5	; 11
     112:	fe cf       	rjmp	.-4      	; 0x110 <main+0x8e>
     114:	8c ef       	ldi	r24, 0xFC	; 252
     116:	8c b9       	out	0x0c, r24	; 12
     118:	5d 9b       	sbis	0x0b, 5	; 11
     11a:	fe cf       	rjmp	.-4      	; 0x118 <main+0x96>
     11c:	85 e0       	ldi	r24, 0x05	; 5
     11e:	8c b9       	out	0x0c, r24	; 12
     120:	5d 9b       	sbis	0x0b, 5	; 11
     122:	fe cf       	rjmp	.-4      	; 0x120 <main+0x9e>
     124:	88 e8       	ldi	r24, 0x88	; 136
     126:	8c b9       	out	0x0c, r24	; 12
     128:	5d 9b       	sbis	0x0b, 5	; 11
     12a:	fe cf       	rjmp	.-4      	; 0x128 <main+0xa6>
     12c:	8f e6       	ldi	r24, 0x6F	; 111
     12e:	8c b9       	out	0x0c, r24	; 12
     130:	5d 9b       	sbis	0x0b, 5	; 11
     132:	fe cf       	rjmp	.-4      	; 0x130 <main+0xae>
     134:	8f e5       	ldi	r24, 0x5F	; 95
     136:	8c b9       	out	0x0c, r24	; 12
     138:	88 ee       	ldi	r24, 0xE8	; 232
     13a:	93 e0       	ldi	r25, 0x03	; 3
     13c:	28 ec       	ldi	r18, 0xC8	; 200
     13e:	30 e0       	ldi	r19, 0x00	; 0
     140:	f9 01       	movw	r30, r18
     142:	31 97       	sbiw	r30, 0x01	; 1
     144:	f1 f7       	brne	.-4      	; 0x142 <main+0xc0>
     146:	01 97       	sbiw	r24, 0x01	; 1
     148:	d9 f7       	brne	.-10     	; 0x140 <main+0xbe>
     14a:	5d 9b       	sbis	0x0b, 5	; 11
     14c:	fe cf       	rjmp	.-4      	; 0x14a <main+0xc8>
     14e:	8c ef       	ldi	r24, 0xFC	; 252
     150:	8c b9       	out	0x0c, r24	; 12
     152:	5d 9b       	sbis	0x0b, 5	; 11
     154:	fe cf       	rjmp	.-4      	; 0x152 <main+0xd0>
     156:	85 e0       	ldi	r24, 0x05	; 5
     158:	8c b9       	out	0x0c, r24	; 12
     15a:	5d 9b       	sbis	0x0b, 5	; 11
     15c:	fe cf       	rjmp	.-4      	; 0x15a <main+0xd8>
     15e:	80 e4       	ldi	r24, 0x40	; 64
     160:	8c b9       	out	0x0c, r24	; 12
     162:	5d 9b       	sbis	0x0b, 5	; 11
     164:	fe cf       	rjmp	.-4      	; 0x162 <main+0xe0>
     166:	8b e2       	ldi	r24, 0x2B	; 43
     168:	8c b9       	out	0x0c, r24	; 12
     16a:	5d 9b       	sbis	0x0b, 5	; 11
     16c:	fe cf       	rjmp	.-4      	; 0x16a <main+0xe8>
     16e:	85 e1       	ldi	r24, 0x15	; 21
     170:	8c b9       	out	0x0c, r24	; 12
     172:	88 ee       	ldi	r24, 0xE8	; 232
     174:	93 e0       	ldi	r25, 0x03	; 3
     176:	28 ec       	ldi	r18, 0xC8	; 200
     178:	30 e0       	ldi	r19, 0x00	; 0
     17a:	f9 01       	movw	r30, r18
     17c:	31 97       	sbiw	r30, 0x01	; 1
     17e:	f1 f7       	brne	.-4      	; 0x17c <main+0xfa>
     180:	01 97       	sbiw	r24, 0x01	; 1
     182:	d9 f7       	brne	.-10     	; 0x17a <main+0xf8>
     184:	5d 9b       	sbis	0x0b, 5	; 11
     186:	fe cf       	rjmp	.-4      	; 0x184 <main+0x102>
     188:	8c ef       	ldi	r24, 0xFC	; 252
     18a:	8c b9       	out	0x0c, r24	; 12
     18c:	5d 9b       	sbis	0x0b, 5	; 11
     18e:	fe cf       	rjmp	.-4      	; 0x18c <main+0x10a>
     190:	86 e0       	ldi	r24, 0x06	; 6
     192:	8c b9       	out	0x0c, r24	; 12
     194:	5d 9b       	sbis	0x0b, 5	; 11
     196:	fe cf       	rjmp	.-4      	; 0x194 <main+0x112>
     198:	83 ec       	ldi	r24, 0xC3	; 195
     19a:	8c b9       	out	0x0c, r24	; 12
     19c:	5d 9b       	sbis	0x0b, 5	; 11
     19e:	fe cf       	rjmp	.-4      	; 0x19c <main+0x11a>
     1a0:	1c b8       	out	0x0c, r1	; 12
     1a2:	5d 9b       	sbis	0x0b, 5	; 11
     1a4:	fe cf       	rjmp	.-4      	; 0x1a2 <main+0x120>
     1a6:	84 e0       	ldi	r24, 0x04	; 4
     1a8:	8c b9       	out	0x0c, r24	; 12
     1aa:	5d 9b       	sbis	0x0b, 5	; 11
     1ac:	fe cf       	rjmp	.-4      	; 0x1aa <main+0x128>
     1ae:	86 ed       	ldi	r24, 0xD6	; 214
     1b0:	8c b9       	out	0x0c, r24	; 12
     1b2:	88 ee       	ldi	r24, 0xE8	; 232
     1b4:	93 e0       	ldi	r25, 0x03	; 3
     1b6:	28 ec       	ldi	r18, 0xC8	; 200
     1b8:	30 e0       	ldi	r19, 0x00	; 0
     1ba:	f9 01       	movw	r30, r18
     1bc:	31 97       	sbiw	r30, 0x01	; 1
     1be:	f1 f7       	brne	.-4      	; 0x1bc <main+0x13a>
     1c0:	01 97       	sbiw	r24, 0x01	; 1
     1c2:	d9 f7       	brne	.-10     	; 0x1ba <main+0x138>
     1c4:	5d 9b       	sbis	0x0b, 5	; 11
     1c6:	fe cf       	rjmp	.-4      	; 0x1c4 <main+0x142>
     1c8:	8c ef       	ldi	r24, 0xFC	; 252
     1ca:	8c b9       	out	0x0c, r24	; 12
     1cc:	5d 9b       	sbis	0x0b, 5	; 11
     1ce:	fe cf       	rjmp	.-4      	; 0x1cc <main+0x14a>
     1d0:	86 e0       	ldi	r24, 0x06	; 6
     1d2:	8c b9       	out	0x0c, r24	; 12
     1d4:	5d 9b       	sbis	0x0b, 5	; 11
     1d6:	fe cf       	rjmp	.-4      	; 0x1d4 <main+0x152>
     1d8:	87 ec       	ldi	r24, 0xC7	; 199
     1da:	8c b9       	out	0x0c, r24	; 12
     1dc:	5d 9b       	sbis	0x0b, 5	; 11
     1de:	fe cf       	rjmp	.-4      	; 0x1dc <main+0x15a>
     1e0:	8c ef       	ldi	r24, 0xFC	; 252
     1e2:	8c b9       	out	0x0c, r24	; 12
     1e4:	5d 9b       	sbis	0x0b, 5	; 11
     1e6:	fe cf       	rjmp	.-4      	; 0x1e4 <main+0x162>
     1e8:	87 e8       	ldi	r24, 0x87	; 135
     1ea:	8c b9       	out	0x0c, r24	; 12
     1ec:	5d 9b       	sbis	0x0b, 5	; 11
     1ee:	fe cf       	rjmp	.-4      	; 0x1ec <main+0x16a>
     1f0:	8c e8       	ldi	r24, 0x8C	; 140
     1f2:	8c b9       	out	0x0c, r24	; 12
     1f4:	88 ee       	ldi	r24, 0xE8	; 232
     1f6:	93 e0       	ldi	r25, 0x03	; 3
     1f8:	28 ec       	ldi	r18, 0xC8	; 200
     1fa:	30 e0       	ldi	r19, 0x00	; 0
     1fc:	f9 01       	movw	r30, r18
     1fe:	31 97       	sbiw	r30, 0x01	; 1
     200:	f1 f7       	brne	.-4      	; 0x1fe <main+0x17c>
     202:	01 97       	sbiw	r24, 0x01	; 1
     204:	d9 f7       	brne	.-10     	; 0x1fc <main+0x17a>
     206:	5d 9b       	sbis	0x0b, 5	; 11
     208:	fe cf       	rjmp	.-4      	; 0x206 <main+0x184>
     20a:	8c ef       	ldi	r24, 0xFC	; 252
     20c:	8c b9       	out	0x0c, r24	; 12
     20e:	5d 9b       	sbis	0x0b, 5	; 11
     210:	fe cf       	rjmp	.-4      	; 0x20e <main+0x18c>
     212:	85 e0       	ldi	r24, 0x05	; 5
     214:	8c b9       	out	0x0c, r24	; 12
     216:	5d 9b       	sbis	0x0b, 5	; 11
     218:	fe cf       	rjmp	.-4      	; 0x216 <main+0x194>
     21a:	81 e1       	ldi	r24, 0x11	; 17
     21c:	8c b9       	out	0x0c, r24	; 12
     21e:	5d 9b       	sbis	0x0b, 5	; 11
     220:	fe cf       	rjmp	.-4      	; 0x21e <main+0x19c>
     222:	87 e2       	ldi	r24, 0x27	; 39
     224:	8c b9       	out	0x0c, r24	; 12
     226:	5d 9b       	sbis	0x0b, 5	; 11
     228:	fe cf       	rjmp	.-4      	; 0x226 <main+0x1a4>
     22a:	86 e5       	ldi	r24, 0x56	; 86
     22c:	8c b9       	out	0x0c, r24	; 12
     22e:	88 ee       	ldi	r24, 0xE8	; 232
     230:	93 e0       	ldi	r25, 0x03	; 3
     232:	28 ec       	ldi	r18, 0xC8	; 200
     234:	30 e0       	ldi	r19, 0x00	; 0
     236:	f9 01       	movw	r30, r18
     238:	31 97       	sbiw	r30, 0x01	; 1
     23a:	f1 f7       	brne	.-4      	; 0x238 <main+0x1b6>
     23c:	01 97       	sbiw	r24, 0x01	; 1
     23e:	d9 f7       	brne	.-10     	; 0x236 <main+0x1b4>
     240:	5d 9b       	sbis	0x0b, 5	; 11
     242:	fe cf       	rjmp	.-4      	; 0x240 <main+0x1be>
     244:	8c ef       	ldi	r24, 0xFC	; 252
     246:	8c b9       	out	0x0c, r24	; 12
     248:	5d 9b       	sbis	0x0b, 5	; 11
     24a:	fe cf       	rjmp	.-4      	; 0x248 <main+0x1c6>
     24c:	86 e0       	ldi	r24, 0x06	; 6
     24e:	8c b9       	out	0x0c, r24	; 12
     250:	5d 9b       	sbis	0x0b, 5	; 11
     252:	fe cf       	rjmp	.-4      	; 0x250 <main+0x1ce>
     254:	83 ec       	ldi	r24, 0xC3	; 195
     256:	8c b9       	out	0x0c, r24	; 12
     258:	5d 9b       	sbis	0x0b, 5	; 11
     25a:	fe cf       	rjmp	.-4      	; 0x258 <main+0x1d6>
     25c:	1c b8       	out	0x0c, r1	; 12
     25e:	5d 9b       	sbis	0x0b, 5	; 11
     260:	fe cf       	rjmp	.-4      	; 0x25e <main+0x1dc>
     262:	84 e0       	ldi	r24, 0x04	; 4
     264:	8c b9       	out	0x0c, r24	; 12
     266:	5d 9b       	sbis	0x0b, 5	; 11
     268:	fe cf       	rjmp	.-4      	; 0x266 <main+0x1e4>
     26a:	86 ed       	ldi	r24, 0xD6	; 214
     26c:	8c b9       	out	0x0c, r24	; 12
     26e:	88 ee       	ldi	r24, 0xE8	; 232
     270:	93 e0       	ldi	r25, 0x03	; 3
     272:	28 ec       	ldi	r18, 0xC8	; 200
     274:	30 e0       	ldi	r19, 0x00	; 0
     276:	f9 01       	movw	r30, r18
     278:	31 97       	sbiw	r30, 0x01	; 1
     27a:	f1 f7       	brne	.-4      	; 0x278 <main+0x1f6>
     27c:	01 97       	sbiw	r24, 0x01	; 1
     27e:	d9 f7       	brne	.-10     	; 0x276 <main+0x1f4>
     280:	5d 9b       	sbis	0x0b, 5	; 11
     282:	fe cf       	rjmp	.-4      	; 0x280 <main+0x1fe>
     284:	8c ef       	ldi	r24, 0xFC	; 252
     286:	8c b9       	out	0x0c, r24	; 12
     288:	5d 9b       	sbis	0x0b, 5	; 11
     28a:	fe cf       	rjmp	.-4      	; 0x288 <main+0x206>
     28c:	86 e0       	ldi	r24, 0x06	; 6
     28e:	8c b9       	out	0x0c, r24	; 12
     290:	5d 9b       	sbis	0x0b, 5	; 11
     292:	fe cf       	rjmp	.-4      	; 0x290 <main+0x20e>
     294:	87 ec       	ldi	r24, 0xC7	; 199
     296:	8c b9       	out	0x0c, r24	; 12
     298:	5d 9b       	sbis	0x0b, 5	; 11
     29a:	fe cf       	rjmp	.-4      	; 0x298 <main+0x216>
     29c:	8c ef       	ldi	r24, 0xFC	; 252
     29e:	8c b9       	out	0x0c, r24	; 12
     2a0:	5d 9b       	sbis	0x0b, 5	; 11
     2a2:	fe cf       	rjmp	.-4      	; 0x2a0 <main+0x21e>
     2a4:	87 e8       	ldi	r24, 0x87	; 135
     2a6:	8c b9       	out	0x0c, r24	; 12
     2a8:	5d 9b       	sbis	0x0b, 5	; 11
     2aa:	fe cf       	rjmp	.-4      	; 0x2a8 <main+0x226>
     2ac:	8c e8       	ldi	r24, 0x8C	; 140
     2ae:	8c b9       	out	0x0c, r24	; 12
     2b0:	88 ee       	ldi	r24, 0xE8	; 232
     2b2:	93 e0       	ldi	r25, 0x03	; 3
     2b4:	28 ec       	ldi	r18, 0xC8	; 200
     2b6:	30 e0       	ldi	r19, 0x00	; 0
     2b8:	f9 01       	movw	r30, r18
     2ba:	31 97       	sbiw	r30, 0x01	; 1
     2bc:	f1 f7       	brne	.-4      	; 0x2ba <main+0x238>
     2be:	01 97       	sbiw	r24, 0x01	; 1
     2c0:	d9 f7       	brne	.-10     	; 0x2b8 <main+0x236>
     2c2:	5c ef       	ldi	r21, 0xFC	; 252
     2c4:	45 e0       	ldi	r20, 0x05	; 5
     2c6:	71 e1       	ldi	r23, 0x11	; 17
     2c8:	a7 e2       	ldi	r26, 0x27	; 39
     2ca:	66 e5       	ldi	r22, 0x56	; 86
     2cc:	28 ec       	ldi	r18, 0xC8	; 200
     2ce:	30 e0       	ldi	r19, 0x00	; 0
     2d0:	18 e8       	ldi	r17, 0x88	; 136
     2d2:	81 2e       	mov	r8, r17
     2d4:	bf e6       	ldi	r27, 0x6F	; 111
     2d6:	7b 2e       	mov	r7, r27
     2d8:	ff e5       	ldi	r31, 0x5F	; 95
     2da:	6f 2e       	mov	r6, r31
     2dc:	e0 e4       	ldi	r30, 0x40	; 64
     2de:	5e 2e       	mov	r5, r30
     2e0:	9b e2       	ldi	r25, 0x2B	; 43
     2e2:	49 2e       	mov	r4, r25
     2e4:	85 e1       	ldi	r24, 0x15	; 21
     2e6:	38 2e       	mov	r3, r24
     2e8:	06 e0       	ldi	r16, 0x06	; 6
     2ea:	e0 2e       	mov	r14, r16
     2ec:	13 ec       	ldi	r17, 0xC3	; 195
     2ee:	d1 2e       	mov	r13, r17
     2f0:	04 e0       	ldi	r16, 0x04	; 4
     2f2:	b6 ed       	ldi	r27, 0xD6	; 214
     2f4:	cb 2e       	mov	r12, r27
     2f6:	f7 ec       	ldi	r31, 0xC7	; 199
     2f8:	bf 2e       	mov	r11, r31
     2fa:	e7 e8       	ldi	r30, 0x87	; 135
     2fc:	ae 2e       	mov	r10, r30
     2fe:	9c e8       	ldi	r25, 0x8C	; 140
     300:	99 2e       	mov	r9, r25
     302:	b0 e5       	ldi	r27, 0x50	; 80
     304:	1a ea       	ldi	r17, 0xAA	; 170
     306:	81 e4       	ldi	r24, 0x41	; 65
     308:	f8 2e       	mov	r15, r24
     30a:	5d 9b       	sbis	0x0b, 5	; 11
     30c:	fe cf       	rjmp	.-4      	; 0x30a <main+0x288>
     30e:	5c b9       	out	0x0c, r21	; 12
     310:	5d 9b       	sbis	0x0b, 5	; 11
     312:	fe cf       	rjmp	.-4      	; 0x310 <main+0x28e>
     314:	4c b9       	out	0x0c, r20	; 12
     316:	5d 9b       	sbis	0x0b, 5	; 11
     318:	fe cf       	rjmp	.-4      	; 0x316 <main+0x294>
     31a:	7c b9       	out	0x0c, r23	; 12
     31c:	5d 9b       	sbis	0x0b, 5	; 11
     31e:	fe cf       	rjmp	.-4      	; 0x31c <main+0x29a>
     320:	ac b9       	out	0x0c, r26	; 12
     322:	5d 9b       	sbis	0x0b, 5	; 11
     324:	fe cf       	rjmp	.-4      	; 0x322 <main+0x2a0>
     326:	6c b9       	out	0x0c, r22	; 12
     328:	5f 9b       	sbis	0x0b, 7	; 11
     32a:	fe cf       	rjmp	.-4      	; 0x328 <main+0x2a6>
     32c:	8c b1       	in	r24, 0x0c	; 12
     32e:	90 e0       	ldi	r25, 0x00	; 0
     330:	90 93 63 00 	sts	0x0063, r25
     334:	80 93 62 00 	sts	0x0062, r24
     338:	8c ed       	ldi	r24, 0xDC	; 220
     33a:	95 e0       	ldi	r25, 0x05	; 5
     33c:	f9 01       	movw	r30, r18
     33e:	31 97       	sbiw	r30, 0x01	; 1
     340:	f1 f7       	brne	.-4      	; 0x33e <main+0x2bc>
     342:	01 97       	sbiw	r24, 0x01	; 1
     344:	d9 f7       	brne	.-10     	; 0x33c <main+0x2ba>
     346:	80 91 62 00 	lds	r24, 0x0062
     34a:	90 91 63 00 	lds	r25, 0x0063
     34e:	88 3e       	cpi	r24, 0xE8	; 232
     350:	91 05       	cpc	r25, r1
     352:	09 f0       	breq	.+2      	; 0x356 <main+0x2d4>
     354:	bc c0       	rjmp	.+376    	; 0x4ce <__stack+0x6f>
     356:	5d 9b       	sbis	0x0b, 5	; 11
     358:	fe cf       	rjmp	.-4      	; 0x356 <main+0x2d4>
     35a:	5c b9       	out	0x0c, r21	; 12
     35c:	5d 9b       	sbis	0x0b, 5	; 11
     35e:	fe cf       	rjmp	.-4      	; 0x35c <main+0x2da>
     360:	4c b9       	out	0x0c, r20	; 12
     362:	5d 9b       	sbis	0x0b, 5	; 11
     364:	fe cf       	rjmp	.-4      	; 0x362 <main+0x2e0>
     366:	7c b9       	out	0x0c, r23	; 12
     368:	5d 9b       	sbis	0x0b, 5	; 11
     36a:	fe cf       	rjmp	.-4      	; 0x368 <main+0x2e6>
     36c:	ac b9       	out	0x0c, r26	; 12
     36e:	5d 9b       	sbis	0x0b, 5	; 11
     370:	fe cf       	rjmp	.-4      	; 0x36e <main+0x2ec>
     372:	6c b9       	out	0x0c, r22	; 12
     374:	88 ee       	ldi	r24, 0xE8	; 232
     376:	93 e0       	ldi	r25, 0x03	; 3
     378:	f9 01       	movw	r30, r18
     37a:	31 97       	sbiw	r30, 0x01	; 1
     37c:	f1 f7       	brne	.-4      	; 0x37a <main+0x2f8>
     37e:	01 97       	sbiw	r24, 0x01	; 1
     380:	d9 f7       	brne	.-10     	; 0x378 <main+0x2f6>
     382:	5d 9b       	sbis	0x0b, 5	; 11
     384:	fe cf       	rjmp	.-4      	; 0x382 <main+0x300>
     386:	5c b9       	out	0x0c, r21	; 12
     388:	5d 9b       	sbis	0x0b, 5	; 11
     38a:	fe cf       	rjmp	.-4      	; 0x388 <main+0x306>
     38c:	4c b9       	out	0x0c, r20	; 12
     38e:	5d 9b       	sbis	0x0b, 5	; 11
     390:	fe cf       	rjmp	.-4      	; 0x38e <main+0x30c>
     392:	8c b8       	out	0x0c, r8	; 12
     394:	5d 9b       	sbis	0x0b, 5	; 11
     396:	fe cf       	rjmp	.-4      	; 0x394 <main+0x312>
     398:	7c b8       	out	0x0c, r7	; 12
     39a:	5d 9b       	sbis	0x0b, 5	; 11
     39c:	fe cf       	rjmp	.-4      	; 0x39a <main+0x318>
     39e:	6c b8       	out	0x0c, r6	; 12
     3a0:	88 ee       	ldi	r24, 0xE8	; 232
     3a2:	93 e0       	ldi	r25, 0x03	; 3
     3a4:	f9 01       	movw	r30, r18
     3a6:	31 97       	sbiw	r30, 0x01	; 1
     3a8:	f1 f7       	brne	.-4      	; 0x3a6 <main+0x324>
     3aa:	01 97       	sbiw	r24, 0x01	; 1
     3ac:	d9 f7       	brne	.-10     	; 0x3a4 <main+0x322>
     3ae:	5d 9b       	sbis	0x0b, 5	; 11
     3b0:	fe cf       	rjmp	.-4      	; 0x3ae <main+0x32c>
     3b2:	5c b9       	out	0x0c, r21	; 12
     3b4:	5d 9b       	sbis	0x0b, 5	; 11
     3b6:	fe cf       	rjmp	.-4      	; 0x3b4 <main+0x332>
     3b8:	4c b9       	out	0x0c, r20	; 12
     3ba:	5d 9b       	sbis	0x0b, 5	; 11
     3bc:	fe cf       	rjmp	.-4      	; 0x3ba <main+0x338>
     3be:	5c b8       	out	0x0c, r5	; 12
     3c0:	5d 9b       	sbis	0x0b, 5	; 11
     3c2:	fe cf       	rjmp	.-4      	; 0x3c0 <main+0x33e>
     3c4:	4c b8       	out	0x0c, r4	; 12
     3c6:	5d 9b       	sbis	0x0b, 5	; 11
     3c8:	fe cf       	rjmp	.-4      	; 0x3c6 <main+0x344>
     3ca:	3c b8       	out	0x0c, r3	; 12
     3cc:	88 ee       	ldi	r24, 0xE8	; 232
     3ce:	93 e0       	ldi	r25, 0x03	; 3
     3d0:	f9 01       	movw	r30, r18
     3d2:	31 97       	sbiw	r30, 0x01	; 1
     3d4:	f1 f7       	brne	.-4      	; 0x3d2 <main+0x350>
     3d6:	01 97       	sbiw	r24, 0x01	; 1
     3d8:	d9 f7       	brne	.-10     	; 0x3d0 <main+0x34e>
     3da:	5d 9b       	sbis	0x0b, 5	; 11
     3dc:	fe cf       	rjmp	.-4      	; 0x3da <main+0x358>
     3de:	5c b9       	out	0x0c, r21	; 12
     3e0:	5d 9b       	sbis	0x0b, 5	; 11
     3e2:	fe cf       	rjmp	.-4      	; 0x3e0 <main+0x35e>
     3e4:	ec b8       	out	0x0c, r14	; 12
     3e6:	5d 9b       	sbis	0x0b, 5	; 11
     3e8:	fe cf       	rjmp	.-4      	; 0x3e6 <main+0x364>
     3ea:	dc b8       	out	0x0c, r13	; 12
     3ec:	5d 9b       	sbis	0x0b, 5	; 11
     3ee:	fe cf       	rjmp	.-4      	; 0x3ec <main+0x36a>
     3f0:	1c b8       	out	0x0c, r1	; 12
     3f2:	5d 9b       	sbis	0x0b, 5	; 11
     3f4:	fe cf       	rjmp	.-4      	; 0x3f2 <main+0x370>
     3f6:	0c b9       	out	0x0c, r16	; 12
     3f8:	5d 9b       	sbis	0x0b, 5	; 11
     3fa:	fe cf       	rjmp	.-4      	; 0x3f8 <main+0x376>
     3fc:	cc b8       	out	0x0c, r12	; 12
     3fe:	88 ee       	ldi	r24, 0xE8	; 232
     400:	93 e0       	ldi	r25, 0x03	; 3
     402:	f9 01       	movw	r30, r18
     404:	31 97       	sbiw	r30, 0x01	; 1
     406:	f1 f7       	brne	.-4      	; 0x404 <main+0x382>
     408:	01 97       	sbiw	r24, 0x01	; 1
     40a:	d9 f7       	brne	.-10     	; 0x402 <main+0x380>
     40c:	5d 9b       	sbis	0x0b, 5	; 11
     40e:	fe cf       	rjmp	.-4      	; 0x40c <main+0x38a>
     410:	5c b9       	out	0x0c, r21	; 12
     412:	5d 9b       	sbis	0x0b, 5	; 11
     414:	fe cf       	rjmp	.-4      	; 0x412 <main+0x390>
     416:	ec b8       	out	0x0c, r14	; 12
     418:	5d 9b       	sbis	0x0b, 5	; 11
     41a:	fe cf       	rjmp	.-4      	; 0x418 <main+0x396>
     41c:	bc b8       	out	0x0c, r11	; 12
     41e:	5d 9b       	sbis	0x0b, 5	; 11
     420:	fe cf       	rjmp	.-4      	; 0x41e <main+0x39c>
     422:	5c b9       	out	0x0c, r21	; 12
     424:	5d 9b       	sbis	0x0b, 5	; 11
     426:	fe cf       	rjmp	.-4      	; 0x424 <main+0x3a2>
     428:	ac b8       	out	0x0c, r10	; 12
     42a:	5d 9b       	sbis	0x0b, 5	; 11
     42c:	fe cf       	rjmp	.-4      	; 0x42a <main+0x3a8>
     42e:	9c b8       	out	0x0c, r9	; 12
     430:	88 ee       	ldi	r24, 0xE8	; 232
     432:	93 e0       	ldi	r25, 0x03	; 3
     434:	f9 01       	movw	r30, r18
     436:	31 97       	sbiw	r30, 0x01	; 1
     438:	f1 f7       	brne	.-4      	; 0x436 <main+0x3b4>
     43a:	01 97       	sbiw	r24, 0x01	; 1
     43c:	d9 f7       	brne	.-10     	; 0x434 <main+0x3b2>
     43e:	5d 9b       	sbis	0x0b, 5	; 11
     440:	fe cf       	rjmp	.-4      	; 0x43e <main+0x3bc>
     442:	5c b9       	out	0x0c, r21	; 12
     444:	5d 9b       	sbis	0x0b, 5	; 11
     446:	fe cf       	rjmp	.-4      	; 0x444 <main+0x3c2>
     448:	4c b9       	out	0x0c, r20	; 12
     44a:	5d 9b       	sbis	0x0b, 5	; 11
     44c:	fe cf       	rjmp	.-4      	; 0x44a <main+0x3c8>
     44e:	7c b9       	out	0x0c, r23	; 12
     450:	5d 9b       	sbis	0x0b, 5	; 11
     452:	fe cf       	rjmp	.-4      	; 0x450 <main+0x3ce>
     454:	ac b9       	out	0x0c, r26	; 12
     456:	5d 9b       	sbis	0x0b, 5	; 11
     458:	fe cf       	rjmp	.-4      	; 0x456 <main+0x3d4>
     45a:	6c b9       	out	0x0c, r22	; 12
     45c:	88 ee       	ldi	r24, 0xE8	; 232
     45e:	93 e0       	ldi	r25, 0x03	; 3
     460:	f9 01       	movw	r30, r18
     462:	31 97       	sbiw	r30, 0x01	; 1
     464:	f1 f7       	brne	.-4      	; 0x462 <__stack+0x3>
     466:	01 97       	sbiw	r24, 0x01	; 1
     468:	d9 f7       	brne	.-10     	; 0x460 <__stack+0x1>
     46a:	5d 9b       	sbis	0x0b, 5	; 11
     46c:	fe cf       	rjmp	.-4      	; 0x46a <__stack+0xb>
     46e:	5c b9       	out	0x0c, r21	; 12
     470:	5d 9b       	sbis	0x0b, 5	; 11
     472:	fe cf       	rjmp	.-4      	; 0x470 <__stack+0x11>
     474:	ec b8       	out	0x0c, r14	; 12
     476:	5d 9b       	sbis	0x0b, 5	; 11
     478:	fe cf       	rjmp	.-4      	; 0x476 <__stack+0x17>
     47a:	dc b8       	out	0x0c, r13	; 12
     47c:	5d 9b       	sbis	0x0b, 5	; 11
     47e:	fe cf       	rjmp	.-4      	; 0x47c <__stack+0x1d>
     480:	1c b8       	out	0x0c, r1	; 12
     482:	5d 9b       	sbis	0x0b, 5	; 11
     484:	fe cf       	rjmp	.-4      	; 0x482 <__stack+0x23>
     486:	0c b9       	out	0x0c, r16	; 12
     488:	5d 9b       	sbis	0x0b, 5	; 11
     48a:	fe cf       	rjmp	.-4      	; 0x488 <__stack+0x29>
     48c:	cc b8       	out	0x0c, r12	; 12
     48e:	88 ee       	ldi	r24, 0xE8	; 232
     490:	93 e0       	ldi	r25, 0x03	; 3
     492:	f9 01       	movw	r30, r18
     494:	31 97       	sbiw	r30, 0x01	; 1
     496:	f1 f7       	brne	.-4      	; 0x494 <__stack+0x35>
     498:	01 97       	sbiw	r24, 0x01	; 1
     49a:	d9 f7       	brne	.-10     	; 0x492 <__stack+0x33>
     49c:	5d 9b       	sbis	0x0b, 5	; 11
     49e:	fe cf       	rjmp	.-4      	; 0x49c <__stack+0x3d>
     4a0:	5c b9       	out	0x0c, r21	; 12
     4a2:	5d 9b       	sbis	0x0b, 5	; 11
     4a4:	fe cf       	rjmp	.-4      	; 0x4a2 <__stack+0x43>
     4a6:	ec b8       	out	0x0c, r14	; 12
     4a8:	5d 9b       	sbis	0x0b, 5	; 11
     4aa:	fe cf       	rjmp	.-4      	; 0x4a8 <__stack+0x49>
     4ac:	bc b8       	out	0x0c, r11	; 12
     4ae:	5d 9b       	sbis	0x0b, 5	; 11
     4b0:	fe cf       	rjmp	.-4      	; 0x4ae <__stack+0x4f>
     4b2:	5c b9       	out	0x0c, r21	; 12
     4b4:	5d 9b       	sbis	0x0b, 5	; 11
     4b6:	fe cf       	rjmp	.-4      	; 0x4b4 <__stack+0x55>
     4b8:	ac b8       	out	0x0c, r10	; 12
     4ba:	5d 9b       	sbis	0x0b, 5	; 11
     4bc:	fe cf       	rjmp	.-4      	; 0x4ba <__stack+0x5b>
     4be:	9c b8       	out	0x0c, r9	; 12
     4c0:	88 ee       	ldi	r24, 0xE8	; 232
     4c2:	93 e0       	ldi	r25, 0x03	; 3
     4c4:	f9 01       	movw	r30, r18
     4c6:	31 97       	sbiw	r30, 0x01	; 1
     4c8:	f1 f7       	brne	.-4      	; 0x4c6 <__stack+0x67>
     4ca:	01 97       	sbiw	r24, 0x01	; 1
     4cc:	d9 f7       	brne	.-10     	; 0x4c4 <__stack+0x65>
     4ce:	80 91 62 00 	lds	r24, 0x0062
     4d2:	90 91 63 00 	lds	r25, 0x0063
     4d6:	8b 3f       	cpi	r24, 0xFB	; 251
     4d8:	91 05       	cpc	r25, r1
     4da:	09 f0       	breq	.+2      	; 0x4de <__stack+0x7f>
     4dc:	76 c1       	rjmp	.+748    	; 0x7ca <__stack+0x36b>
     4de:	10 92 63 00 	sts	0x0063, r1
     4e2:	10 92 62 00 	sts	0x0062, r1
     4e6:	5d 9b       	sbis	0x0b, 5	; 11
     4e8:	fe cf       	rjmp	.-4      	; 0x4e6 <__stack+0x87>
     4ea:	5c b9       	out	0x0c, r21	; 12
     4ec:	5d 9b       	sbis	0x0b, 5	; 11
     4ee:	fe cf       	rjmp	.-4      	; 0x4ec <__stack+0x8d>
     4f0:	4c b9       	out	0x0c, r20	; 12
     4f2:	5d 9b       	sbis	0x0b, 5	; 11
     4f4:	fe cf       	rjmp	.-4      	; 0x4f2 <__stack+0x93>
     4f6:	fc b8       	out	0x0c, r15	; 12
     4f8:	5d 9b       	sbis	0x0b, 5	; 11
     4fa:	fe cf       	rjmp	.-4      	; 0x4f8 <__stack+0x99>
     4fc:	82 ea       	ldi	r24, 0xA2	; 162
     4fe:	8c b9       	out	0x0c, r24	; 12
     500:	5d 9b       	sbis	0x0b, 5	; 11
     502:	fe cf       	rjmp	.-4      	; 0x500 <__stack+0xa1>
     504:	0c b9       	out	0x0c, r16	; 12
     506:	8c ed       	ldi	r24, 0xDC	; 220
     508:	95 e0       	ldi	r25, 0x05	; 5
     50a:	f9 01       	movw	r30, r18
     50c:	31 97       	sbiw	r30, 0x01	; 1
     50e:	f1 f7       	brne	.-4      	; 0x50c <__stack+0xad>
     510:	01 97       	sbiw	r24, 0x01	; 1
     512:	d9 f7       	brne	.-10     	; 0x50a <__stack+0xab>
     514:	5d 9b       	sbis	0x0b, 5	; 11
     516:	fe cf       	rjmp	.-4      	; 0x514 <__stack+0xb5>
     518:	5c b9       	out	0x0c, r21	; 12
     51a:	5d 9b       	sbis	0x0b, 5	; 11
     51c:	fe cf       	rjmp	.-4      	; 0x51a <__stack+0xbb>
     51e:	4c b9       	out	0x0c, r20	; 12
     520:	5d 9b       	sbis	0x0b, 5	; 11
     522:	fe cf       	rjmp	.-4      	; 0x520 <__stack+0xc1>
     524:	7c b9       	out	0x0c, r23	; 12
     526:	5d 9b       	sbis	0x0b, 5	; 11
     528:	fe cf       	rjmp	.-4      	; 0x526 <__stack+0xc7>
     52a:	ac b9       	out	0x0c, r26	; 12
     52c:	5d 9b       	sbis	0x0b, 5	; 11
     52e:	fe cf       	rjmp	.-4      	; 0x52c <__stack+0xcd>
     530:	6c b9       	out	0x0c, r22	; 12
     532:	8c ed       	ldi	r24, 0xDC	; 220
     534:	95 e0       	ldi	r25, 0x05	; 5
     536:	f9 01       	movw	r30, r18
     538:	31 97       	sbiw	r30, 0x01	; 1
     53a:	f1 f7       	brne	.-4      	; 0x538 <__stack+0xd9>
     53c:	01 97       	sbiw	r24, 0x01	; 1
     53e:	d9 f7       	brne	.-10     	; 0x536 <__stack+0xd7>
     540:	5d 9b       	sbis	0x0b, 5	; 11
     542:	fe cf       	rjmp	.-4      	; 0x540 <__stack+0xe1>
     544:	5c b9       	out	0x0c, r21	; 12
     546:	5d 9b       	sbis	0x0b, 5	; 11
     548:	fe cf       	rjmp	.-4      	; 0x546 <__stack+0xe7>
     54a:	4c b9       	out	0x0c, r20	; 12
     54c:	5d 9b       	sbis	0x0b, 5	; 11
     54e:	fe cf       	rjmp	.-4      	; 0x54c <__stack+0xed>
     550:	7c b9       	out	0x0c, r23	; 12
     552:	5d 9b       	sbis	0x0b, 5	; 11
     554:	fe cf       	rjmp	.-4      	; 0x552 <__stack+0xf3>
     556:	ac b9       	out	0x0c, r26	; 12
     558:	5d 9b       	sbis	0x0b, 5	; 11
     55a:	fe cf       	rjmp	.-4      	; 0x558 <__stack+0xf9>
     55c:	6c b9       	out	0x0c, r22	; 12
     55e:	8c ed       	ldi	r24, 0xDC	; 220
     560:	95 e0       	ldi	r25, 0x05	; 5
     562:	f9 01       	movw	r30, r18
     564:	31 97       	sbiw	r30, 0x01	; 1
     566:	f1 f7       	brne	.-4      	; 0x564 <__stack+0x105>
     568:	01 97       	sbiw	r24, 0x01	; 1
     56a:	d9 f7       	brne	.-10     	; 0x562 <__stack+0x103>
     56c:	5d 9b       	sbis	0x0b, 5	; 11
     56e:	fe cf       	rjmp	.-4      	; 0x56c <__stack+0x10d>
     570:	5c b9       	out	0x0c, r21	; 12
     572:	5d 9b       	sbis	0x0b, 5	; 11
     574:	fe cf       	rjmp	.-4      	; 0x572 <__stack+0x113>
     576:	4c b9       	out	0x0c, r20	; 12
     578:	5d 9b       	sbis	0x0b, 5	; 11
     57a:	fe cf       	rjmp	.-4      	; 0x578 <__stack+0x119>
     57c:	7c b9       	out	0x0c, r23	; 12
     57e:	5d 9b       	sbis	0x0b, 5	; 11
     580:	fe cf       	rjmp	.-4      	; 0x57e <__stack+0x11f>
     582:	ac b9       	out	0x0c, r26	; 12
     584:	5d 9b       	sbis	0x0b, 5	; 11
     586:	fe cf       	rjmp	.-4      	; 0x584 <__stack+0x125>
     588:	6c b9       	out	0x0c, r22	; 12
     58a:	8c ed       	ldi	r24, 0xDC	; 220
     58c:	95 e0       	ldi	r25, 0x05	; 5
     58e:	f9 01       	movw	r30, r18
     590:	31 97       	sbiw	r30, 0x01	; 1
     592:	f1 f7       	brne	.-4      	; 0x590 <__stack+0x131>
     594:	01 97       	sbiw	r24, 0x01	; 1
     596:	d9 f7       	brne	.-10     	; 0x58e <__stack+0x12f>
     598:	5d 9b       	sbis	0x0b, 5	; 11
     59a:	fe cf       	rjmp	.-4      	; 0x598 <__stack+0x139>
     59c:	5c b9       	out	0x0c, r21	; 12
     59e:	5d 9b       	sbis	0x0b, 5	; 11
     5a0:	fe cf       	rjmp	.-4      	; 0x59e <__stack+0x13f>
     5a2:	4c b9       	out	0x0c, r20	; 12
     5a4:	5d 9b       	sbis	0x0b, 5	; 11
     5a6:	fe cf       	rjmp	.-4      	; 0x5a4 <__stack+0x145>
     5a8:	7c b9       	out	0x0c, r23	; 12
     5aa:	5d 9b       	sbis	0x0b, 5	; 11
     5ac:	fe cf       	rjmp	.-4      	; 0x5aa <__stack+0x14b>
     5ae:	ac b9       	out	0x0c, r26	; 12
     5b0:	5d 9b       	sbis	0x0b, 5	; 11
     5b2:	fe cf       	rjmp	.-4      	; 0x5b0 <__stack+0x151>
     5b4:	6c b9       	out	0x0c, r22	; 12
     5b6:	8c ed       	ldi	r24, 0xDC	; 220
     5b8:	95 e0       	ldi	r25, 0x05	; 5
     5ba:	f9 01       	movw	r30, r18
     5bc:	31 97       	sbiw	r30, 0x01	; 1
     5be:	f1 f7       	brne	.-4      	; 0x5bc <__stack+0x15d>
     5c0:	01 97       	sbiw	r24, 0x01	; 1
     5c2:	d9 f7       	brne	.-10     	; 0x5ba <__stack+0x15b>
     5c4:	5d 9b       	sbis	0x0b, 5	; 11
     5c6:	fe cf       	rjmp	.-4      	; 0x5c4 <__stack+0x165>
     5c8:	5c b9       	out	0x0c, r21	; 12
     5ca:	5d 9b       	sbis	0x0b, 5	; 11
     5cc:	fe cf       	rjmp	.-4      	; 0x5ca <__stack+0x16b>
     5ce:	4c b9       	out	0x0c, r20	; 12
     5d0:	5d 9b       	sbis	0x0b, 5	; 11
     5d2:	fe cf       	rjmp	.-4      	; 0x5d0 <__stack+0x171>
     5d4:	7c b9       	out	0x0c, r23	; 12
     5d6:	5d 9b       	sbis	0x0b, 5	; 11
     5d8:	fe cf       	rjmp	.-4      	; 0x5d6 <__stack+0x177>
     5da:	ac b9       	out	0x0c, r26	; 12
     5dc:	5d 9b       	sbis	0x0b, 5	; 11
     5de:	fe cf       	rjmp	.-4      	; 0x5dc <__stack+0x17d>
     5e0:	6c b9       	out	0x0c, r22	; 12
     5e2:	8c ed       	ldi	r24, 0xDC	; 220
     5e4:	95 e0       	ldi	r25, 0x05	; 5
     5e6:	f9 01       	movw	r30, r18
     5e8:	31 97       	sbiw	r30, 0x01	; 1
     5ea:	f1 f7       	brne	.-4      	; 0x5e8 <__stack+0x189>
     5ec:	01 97       	sbiw	r24, 0x01	; 1
     5ee:	d9 f7       	brne	.-10     	; 0x5e6 <__stack+0x187>
     5f0:	5d 9b       	sbis	0x0b, 5	; 11
     5f2:	fe cf       	rjmp	.-4      	; 0x5f0 <__stack+0x191>
     5f4:	5c b9       	out	0x0c, r21	; 12
     5f6:	5d 9b       	sbis	0x0b, 5	; 11
     5f8:	fe cf       	rjmp	.-4      	; 0x5f6 <__stack+0x197>
     5fa:	4c b9       	out	0x0c, r20	; 12
     5fc:	5d 9b       	sbis	0x0b, 5	; 11
     5fe:	fe cf       	rjmp	.-4      	; 0x5fc <__stack+0x19d>
     600:	7c b9       	out	0x0c, r23	; 12
     602:	5d 9b       	sbis	0x0b, 5	; 11
     604:	fe cf       	rjmp	.-4      	; 0x602 <__stack+0x1a3>
     606:	ac b9       	out	0x0c, r26	; 12
     608:	5d 9b       	sbis	0x0b, 5	; 11
     60a:	fe cf       	rjmp	.-4      	; 0x608 <__stack+0x1a9>
     60c:	6c b9       	out	0x0c, r22	; 12
     60e:	8c ed       	ldi	r24, 0xDC	; 220
     610:	95 e0       	ldi	r25, 0x05	; 5
     612:	f9 01       	movw	r30, r18
     614:	31 97       	sbiw	r30, 0x01	; 1
     616:	f1 f7       	brne	.-4      	; 0x614 <__stack+0x1b5>
     618:	01 97       	sbiw	r24, 0x01	; 1
     61a:	d9 f7       	brne	.-10     	; 0x612 <__stack+0x1b3>
     61c:	5d 9b       	sbis	0x0b, 5	; 11
     61e:	fe cf       	rjmp	.-4      	; 0x61c <__stack+0x1bd>
     620:	5c b9       	out	0x0c, r21	; 12
     622:	5d 9b       	sbis	0x0b, 5	; 11
     624:	fe cf       	rjmp	.-4      	; 0x622 <__stack+0x1c3>
     626:	4c b9       	out	0x0c, r20	; 12
     628:	5d 9b       	sbis	0x0b, 5	; 11
     62a:	fe cf       	rjmp	.-4      	; 0x628 <__stack+0x1c9>
     62c:	7c b9       	out	0x0c, r23	; 12
     62e:	5d 9b       	sbis	0x0b, 5	; 11
     630:	fe cf       	rjmp	.-4      	; 0x62e <__stack+0x1cf>
     632:	ac b9       	out	0x0c, r26	; 12
     634:	5d 9b       	sbis	0x0b, 5	; 11
     636:	fe cf       	rjmp	.-4      	; 0x634 <__stack+0x1d5>
     638:	6c b9       	out	0x0c, r22	; 12
     63a:	8c ed       	ldi	r24, 0xDC	; 220
     63c:	95 e0       	ldi	r25, 0x05	; 5
     63e:	f9 01       	movw	r30, r18
     640:	31 97       	sbiw	r30, 0x01	; 1
     642:	f1 f7       	brne	.-4      	; 0x640 <__stack+0x1e1>
     644:	01 97       	sbiw	r24, 0x01	; 1
     646:	d9 f7       	brne	.-10     	; 0x63e <__stack+0x1df>
     648:	5d 9b       	sbis	0x0b, 5	; 11
     64a:	fe cf       	rjmp	.-4      	; 0x648 <__stack+0x1e9>
     64c:	5c b9       	out	0x0c, r21	; 12
     64e:	5d 9b       	sbis	0x0b, 5	; 11
     650:	fe cf       	rjmp	.-4      	; 0x64e <__stack+0x1ef>
     652:	4c b9       	out	0x0c, r20	; 12
     654:	5d 9b       	sbis	0x0b, 5	; 11
     656:	fe cf       	rjmp	.-4      	; 0x654 <__stack+0x1f5>
     658:	7c b9       	out	0x0c, r23	; 12
     65a:	5d 9b       	sbis	0x0b, 5	; 11
     65c:	fe cf       	rjmp	.-4      	; 0x65a <__stack+0x1fb>
     65e:	ac b9       	out	0x0c, r26	; 12
     660:	5d 9b       	sbis	0x0b, 5	; 11
     662:	fe cf       	rjmp	.-4      	; 0x660 <__stack+0x201>
     664:	6c b9       	out	0x0c, r22	; 12
     666:	8c ed       	ldi	r24, 0xDC	; 220
     668:	95 e0       	ldi	r25, 0x05	; 5
     66a:	f9 01       	movw	r30, r18
     66c:	31 97       	sbiw	r30, 0x01	; 1
     66e:	f1 f7       	brne	.-4      	; 0x66c <__stack+0x20d>
     670:	01 97       	sbiw	r24, 0x01	; 1
     672:	d9 f7       	brne	.-10     	; 0x66a <__stack+0x20b>
     674:	5d 9b       	sbis	0x0b, 5	; 11
     676:	fe cf       	rjmp	.-4      	; 0x674 <__stack+0x215>
     678:	5c b9       	out	0x0c, r21	; 12
     67a:	5d 9b       	sbis	0x0b, 5	; 11
     67c:	fe cf       	rjmp	.-4      	; 0x67a <__stack+0x21b>
     67e:	4c b9       	out	0x0c, r20	; 12
     680:	5d 9b       	sbis	0x0b, 5	; 11
     682:	fe cf       	rjmp	.-4      	; 0x680 <__stack+0x221>
     684:	7c b9       	out	0x0c, r23	; 12
     686:	5d 9b       	sbis	0x0b, 5	; 11
     688:	fe cf       	rjmp	.-4      	; 0x686 <__stack+0x227>
     68a:	ac b9       	out	0x0c, r26	; 12
     68c:	5d 9b       	sbis	0x0b, 5	; 11
     68e:	fe cf       	rjmp	.-4      	; 0x68c <__stack+0x22d>
     690:	6c b9       	out	0x0c, r22	; 12
     692:	8c ed       	ldi	r24, 0xDC	; 220
     694:	95 e0       	ldi	r25, 0x05	; 5
     696:	f9 01       	movw	r30, r18
     698:	31 97       	sbiw	r30, 0x01	; 1
     69a:	f1 f7       	brne	.-4      	; 0x698 <__stack+0x239>
     69c:	01 97       	sbiw	r24, 0x01	; 1
     69e:	d9 f7       	brne	.-10     	; 0x696 <__stack+0x237>
     6a0:	5d 9b       	sbis	0x0b, 5	; 11
     6a2:	fe cf       	rjmp	.-4      	; 0x6a0 <__stack+0x241>
     6a4:	5c b9       	out	0x0c, r21	; 12
     6a6:	5d 9b       	sbis	0x0b, 5	; 11
     6a8:	fe cf       	rjmp	.-4      	; 0x6a6 <__stack+0x247>
     6aa:	4c b9       	out	0x0c, r20	; 12
     6ac:	5d 9b       	sbis	0x0b, 5	; 11
     6ae:	fe cf       	rjmp	.-4      	; 0x6ac <__stack+0x24d>
     6b0:	7c b9       	out	0x0c, r23	; 12
     6b2:	5d 9b       	sbis	0x0b, 5	; 11
     6b4:	fe cf       	rjmp	.-4      	; 0x6b2 <__stack+0x253>
     6b6:	ac b9       	out	0x0c, r26	; 12
     6b8:	5d 9b       	sbis	0x0b, 5	; 11
     6ba:	fe cf       	rjmp	.-4      	; 0x6b8 <__stack+0x259>
     6bc:	6c b9       	out	0x0c, r22	; 12
     6be:	8c ed       	ldi	r24, 0xDC	; 220
     6c0:	95 e0       	ldi	r25, 0x05	; 5
     6c2:	f9 01       	movw	r30, r18
     6c4:	31 97       	sbiw	r30, 0x01	; 1
     6c6:	f1 f7       	brne	.-4      	; 0x6c4 <__stack+0x265>
     6c8:	01 97       	sbiw	r24, 0x01	; 1
     6ca:	d9 f7       	brne	.-10     	; 0x6c2 <__stack+0x263>
     6cc:	5d 9b       	sbis	0x0b, 5	; 11
     6ce:	fe cf       	rjmp	.-4      	; 0x6cc <__stack+0x26d>
     6d0:	5c b9       	out	0x0c, r21	; 12
     6d2:	5d 9b       	sbis	0x0b, 5	; 11
     6d4:	fe cf       	rjmp	.-4      	; 0x6d2 <__stack+0x273>
     6d6:	4c b9       	out	0x0c, r20	; 12
     6d8:	5d 9b       	sbis	0x0b, 5	; 11
     6da:	fe cf       	rjmp	.-4      	; 0x6d8 <__stack+0x279>
     6dc:	bc b9       	out	0x0c, r27	; 12
     6de:	5d 9b       	sbis	0x0b, 5	; 11
     6e0:	fe cf       	rjmp	.-4      	; 0x6de <__stack+0x27f>
     6e2:	1c b9       	out	0x0c, r17	; 12
     6e4:	5d 9b       	sbis	0x0b, 5	; 11
     6e6:	fe cf       	rjmp	.-4      	; 0x6e4 <__stack+0x285>
     6e8:	4c b9       	out	0x0c, r20	; 12
     6ea:	8c ed       	ldi	r24, 0xDC	; 220
     6ec:	95 e0       	ldi	r25, 0x05	; 5
     6ee:	f9 01       	movw	r30, r18
     6f0:	31 97       	sbiw	r30, 0x01	; 1
     6f2:	f1 f7       	brne	.-4      	; 0x6f0 <__stack+0x291>
     6f4:	01 97       	sbiw	r24, 0x01	; 1
     6f6:	d9 f7       	brne	.-10     	; 0x6ee <__stack+0x28f>
     6f8:	5d 9b       	sbis	0x0b, 5	; 11
     6fa:	fe cf       	rjmp	.-4      	; 0x6f8 <__stack+0x299>
     6fc:	5c b9       	out	0x0c, r21	; 12
     6fe:	5d 9b       	sbis	0x0b, 5	; 11
     700:	fe cf       	rjmp	.-4      	; 0x6fe <__stack+0x29f>
     702:	4c b9       	out	0x0c, r20	; 12
     704:	5d 9b       	sbis	0x0b, 5	; 11
     706:	fe cf       	rjmp	.-4      	; 0x704 <__stack+0x2a5>
     708:	7c b9       	out	0x0c, r23	; 12
     70a:	5d 9b       	sbis	0x0b, 5	; 11
     70c:	fe cf       	rjmp	.-4      	; 0x70a <__stack+0x2ab>
     70e:	ac b9       	out	0x0c, r26	; 12
     710:	5d 9b       	sbis	0x0b, 5	; 11
     712:	fe cf       	rjmp	.-4      	; 0x710 <__stack+0x2b1>
     714:	6c b9       	out	0x0c, r22	; 12
     716:	ad 98       	cbi	0x15, 5	; 21
     718:	88 ee       	ldi	r24, 0xE8	; 232
     71a:	93 e0       	ldi	r25, 0x03	; 3
     71c:	f9 01       	movw	r30, r18
     71e:	31 97       	sbiw	r30, 0x01	; 1
     720:	f1 f7       	brne	.-4      	; 0x71e <__stack+0x2bf>
     722:	01 97       	sbiw	r24, 0x01	; 1
     724:	d9 f7       	brne	.-10     	; 0x71c <__stack+0x2bd>
     726:	ad 9a       	sbi	0x15, 5	; 21
     728:	88 ee       	ldi	r24, 0xE8	; 232
     72a:	93 e0       	ldi	r25, 0x03	; 3
     72c:	f9 01       	movw	r30, r18
     72e:	31 97       	sbiw	r30, 0x01	; 1
     730:	f1 f7       	brne	.-4      	; 0x72e <__stack+0x2cf>
     732:	01 97       	sbiw	r24, 0x01	; 1
     734:	d9 f7       	brne	.-10     	; 0x72c <__stack+0x2cd>
     736:	81 e0       	ldi	r24, 0x01	; 1
     738:	90 e0       	ldi	r25, 0x00	; 0
     73a:	90 93 63 00 	sts	0x0063, r25
     73e:	80 93 62 00 	sts	0x0062, r24
     742:	5d 9b       	sbis	0x0b, 5	; 11
     744:	fe cf       	rjmp	.-4      	; 0x742 <__stack+0x2e3>
     746:	5c b9       	out	0x0c, r21	; 12
     748:	5d 9b       	sbis	0x0b, 5	; 11
     74a:	fe cf       	rjmp	.-4      	; 0x748 <__stack+0x2e9>
     74c:	4c b9       	out	0x0c, r20	; 12
     74e:	5d 9b       	sbis	0x0b, 5	; 11
     750:	fe cf       	rjmp	.-4      	; 0x74e <__stack+0x2ef>
     752:	bc b9       	out	0x0c, r27	; 12
     754:	5d 9b       	sbis	0x0b, 5	; 11
     756:	fe cf       	rjmp	.-4      	; 0x754 <__stack+0x2f5>
     758:	1c b9       	out	0x0c, r17	; 12
     75a:	5d 9b       	sbis	0x0b, 5	; 11
     75c:	fe cf       	rjmp	.-4      	; 0x75a <__stack+0x2fb>
     75e:	4c b9       	out	0x0c, r20	; 12
     760:	8c ed       	ldi	r24, 0xDC	; 220
     762:	95 e0       	ldi	r25, 0x05	; 5
     764:	f9 01       	movw	r30, r18
     766:	31 97       	sbiw	r30, 0x01	; 1
     768:	f1 f7       	brne	.-4      	; 0x766 <__stack+0x307>
     76a:	01 97       	sbiw	r24, 0x01	; 1
     76c:	d9 f7       	brne	.-10     	; 0x764 <__stack+0x305>
     76e:	5d 9b       	sbis	0x0b, 5	; 11
     770:	fe cf       	rjmp	.-4      	; 0x76e <__stack+0x30f>
     772:	5c b9       	out	0x0c, r21	; 12
     774:	5d 9b       	sbis	0x0b, 5	; 11
     776:	fe cf       	rjmp	.-4      	; 0x774 <__stack+0x315>
     778:	4c b9       	out	0x0c, r20	; 12
     77a:	5d 9b       	sbis	0x0b, 5	; 11
     77c:	fe cf       	rjmp	.-4      	; 0x77a <__stack+0x31b>
     77e:	7c b9       	out	0x0c, r23	; 12
     780:	5d 9b       	sbis	0x0b, 5	; 11
     782:	fe cf       	rjmp	.-4      	; 0x780 <__stack+0x321>
     784:	ac b9       	out	0x0c, r26	; 12
     786:	5d 9b       	sbis	0x0b, 5	; 11
     788:	fe cf       	rjmp	.-4      	; 0x786 <__stack+0x327>
     78a:	6c b9       	out	0x0c, r22	; 12
     78c:	8c ed       	ldi	r24, 0xDC	; 220
     78e:	95 e0       	ldi	r25, 0x05	; 5
     790:	f9 01       	movw	r30, r18
     792:	31 97       	sbiw	r30, 0x01	; 1
     794:	f1 f7       	brne	.-4      	; 0x792 <__stack+0x333>
     796:	01 97       	sbiw	r24, 0x01	; 1
     798:	d9 f7       	brne	.-10     	; 0x790 <__stack+0x331>
     79a:	5f 9b       	sbis	0x0b, 7	; 11
     79c:	fe cf       	rjmp	.-4      	; 0x79a <__stack+0x33b>
     79e:	8c b1       	in	r24, 0x0c	; 12
     7a0:	90 e0       	ldi	r25, 0x00	; 0
     7a2:	90 93 63 00 	sts	0x0063, r25
     7a6:	80 93 62 00 	sts	0x0062, r24
     7aa:	5f 9b       	sbis	0x0b, 7	; 11
     7ac:	fe cf       	rjmp	.-4      	; 0x7aa <__stack+0x34b>
     7ae:	8c b1       	in	r24, 0x0c	; 12
     7b0:	90 e0       	ldi	r25, 0x00	; 0
     7b2:	90 93 63 00 	sts	0x0063, r25
     7b6:	80 93 62 00 	sts	0x0062, r24
     7ba:	5f 9b       	sbis	0x0b, 7	; 11
     7bc:	fe cf       	rjmp	.-4      	; 0x7ba <__stack+0x35b>
     7be:	8c b1       	in	r24, 0x0c	; 12
     7c0:	90 e0       	ldi	r25, 0x00	; 0
     7c2:	90 93 63 00 	sts	0x0063, r25
     7c6:	80 93 62 00 	sts	0x0062, r24
     7ca:	80 91 62 00 	lds	r24, 0x0062
     7ce:	90 91 63 00 	lds	r25, 0x0063
     7d2:	89 3c       	cpi	r24, 0xC9	; 201
     7d4:	91 05       	cpc	r25, r1
     7d6:	09 f0       	breq	.+2      	; 0x7da <__stack+0x37b>
     7d8:	86 c1       	rjmp	.+780    	; 0xae6 <__stack+0x687>
     7da:	10 92 63 00 	sts	0x0063, r1
     7de:	10 92 62 00 	sts	0x0062, r1
     7e2:	5d 9b       	sbis	0x0b, 5	; 11
     7e4:	fe cf       	rjmp	.-4      	; 0x7e2 <__stack+0x383>
     7e6:	5c b9       	out	0x0c, r21	; 12
     7e8:	5d 9b       	sbis	0x0b, 5	; 11
     7ea:	fe cf       	rjmp	.-4      	; 0x7e8 <__stack+0x389>
     7ec:	4c b9       	out	0x0c, r20	; 12
     7ee:	5d 9b       	sbis	0x0b, 5	; 11
     7f0:	fe cf       	rjmp	.-4      	; 0x7ee <__stack+0x38f>
     7f2:	fc b8       	out	0x0c, r15	; 12
     7f4:	5d 9b       	sbis	0x0b, 5	; 11
     7f6:	fe cf       	rjmp	.-4      	; 0x7f4 <__stack+0x395>
     7f8:	82 ea       	ldi	r24, 0xA2	; 162
     7fa:	8c b9       	out	0x0c, r24	; 12
     7fc:	5d 9b       	sbis	0x0b, 5	; 11
     7fe:	fe cf       	rjmp	.-4      	; 0x7fc <__stack+0x39d>
     800:	0c b9       	out	0x0c, r16	; 12
     802:	8c ed       	ldi	r24, 0xDC	; 220
     804:	95 e0       	ldi	r25, 0x05	; 5
     806:	f9 01       	movw	r30, r18
     808:	31 97       	sbiw	r30, 0x01	; 1
     80a:	f1 f7       	brne	.-4      	; 0x808 <__stack+0x3a9>
     80c:	01 97       	sbiw	r24, 0x01	; 1
     80e:	d9 f7       	brne	.-10     	; 0x806 <__stack+0x3a7>
     810:	5d 9b       	sbis	0x0b, 5	; 11
     812:	fe cf       	rjmp	.-4      	; 0x810 <__stack+0x3b1>
     814:	5c b9       	out	0x0c, r21	; 12
     816:	5d 9b       	sbis	0x0b, 5	; 11
     818:	fe cf       	rjmp	.-4      	; 0x816 <__stack+0x3b7>
     81a:	4c b9       	out	0x0c, r20	; 12
     81c:	5d 9b       	sbis	0x0b, 5	; 11
     81e:	fe cf       	rjmp	.-4      	; 0x81c <__stack+0x3bd>
     820:	7c b9       	out	0x0c, r23	; 12
     822:	5d 9b       	sbis	0x0b, 5	; 11
     824:	fe cf       	rjmp	.-4      	; 0x822 <__stack+0x3c3>
     826:	ac b9       	out	0x0c, r26	; 12
     828:	5d 9b       	sbis	0x0b, 5	; 11
     82a:	fe cf       	rjmp	.-4      	; 0x828 <__stack+0x3c9>
     82c:	6c b9       	out	0x0c, r22	; 12
     82e:	8c ed       	ldi	r24, 0xDC	; 220
     830:	95 e0       	ldi	r25, 0x05	; 5
     832:	f9 01       	movw	r30, r18
     834:	31 97       	sbiw	r30, 0x01	; 1
     836:	f1 f7       	brne	.-4      	; 0x834 <__stack+0x3d5>
     838:	01 97       	sbiw	r24, 0x01	; 1
     83a:	d9 f7       	brne	.-10     	; 0x832 <__stack+0x3d3>
     83c:	5d 9b       	sbis	0x0b, 5	; 11
     83e:	fe cf       	rjmp	.-4      	; 0x83c <__stack+0x3dd>
     840:	5c b9       	out	0x0c, r21	; 12
     842:	5d 9b       	sbis	0x0b, 5	; 11
     844:	fe cf       	rjmp	.-4      	; 0x842 <__stack+0x3e3>
     846:	4c b9       	out	0x0c, r20	; 12
     848:	5d 9b       	sbis	0x0b, 5	; 11
     84a:	fe cf       	rjmp	.-4      	; 0x848 <__stack+0x3e9>
     84c:	7c b9       	out	0x0c, r23	; 12
     84e:	5d 9b       	sbis	0x0b, 5	; 11
     850:	fe cf       	rjmp	.-4      	; 0x84e <__stack+0x3ef>
     852:	ac b9       	out	0x0c, r26	; 12
     854:	5d 9b       	sbis	0x0b, 5	; 11
     856:	fe cf       	rjmp	.-4      	; 0x854 <__stack+0x3f5>
     858:	6c b9       	out	0x0c, r22	; 12
     85a:	8c ed       	ldi	r24, 0xDC	; 220
     85c:	95 e0       	ldi	r25, 0x05	; 5
     85e:	f9 01       	movw	r30, r18
     860:	31 97       	sbiw	r30, 0x01	; 1
     862:	f1 f7       	brne	.-4      	; 0x860 <__stack+0x401>
     864:	01 97       	sbiw	r24, 0x01	; 1
     866:	d9 f7       	brne	.-10     	; 0x85e <__stack+0x3ff>
     868:	5d 9b       	sbis	0x0b, 5	; 11
     86a:	fe cf       	rjmp	.-4      	; 0x868 <__stack+0x409>
     86c:	5c b9       	out	0x0c, r21	; 12
     86e:	5d 9b       	sbis	0x0b, 5	; 11
     870:	fe cf       	rjmp	.-4      	; 0x86e <__stack+0x40f>
     872:	4c b9       	out	0x0c, r20	; 12
     874:	5d 9b       	sbis	0x0b, 5	; 11
     876:	fe cf       	rjmp	.-4      	; 0x874 <__stack+0x415>
     878:	7c b9       	out	0x0c, r23	; 12
     87a:	5d 9b       	sbis	0x0b, 5	; 11
     87c:	fe cf       	rjmp	.-4      	; 0x87a <__stack+0x41b>
     87e:	ac b9       	out	0x0c, r26	; 12
     880:	5d 9b       	sbis	0x0b, 5	; 11
     882:	fe cf       	rjmp	.-4      	; 0x880 <__stack+0x421>
     884:	6c b9       	out	0x0c, r22	; 12
     886:	8c ed       	ldi	r24, 0xDC	; 220
     888:	95 e0       	ldi	r25, 0x05	; 5
     88a:	f9 01       	movw	r30, r18
     88c:	31 97       	sbiw	r30, 0x01	; 1
     88e:	f1 f7       	brne	.-4      	; 0x88c <__stack+0x42d>
     890:	01 97       	sbiw	r24, 0x01	; 1
     892:	d9 f7       	brne	.-10     	; 0x88a <__stack+0x42b>
     894:	5d 9b       	sbis	0x0b, 5	; 11
     896:	fe cf       	rjmp	.-4      	; 0x894 <__stack+0x435>
     898:	5c b9       	out	0x0c, r21	; 12
     89a:	5d 9b       	sbis	0x0b, 5	; 11
     89c:	fe cf       	rjmp	.-4      	; 0x89a <__stack+0x43b>
     89e:	4c b9       	out	0x0c, r20	; 12
     8a0:	5d 9b       	sbis	0x0b, 5	; 11
     8a2:	fe cf       	rjmp	.-4      	; 0x8a0 <__stack+0x441>
     8a4:	7c b9       	out	0x0c, r23	; 12
     8a6:	5d 9b       	sbis	0x0b, 5	; 11
     8a8:	fe cf       	rjmp	.-4      	; 0x8a6 <__stack+0x447>
     8aa:	ac b9       	out	0x0c, r26	; 12
     8ac:	5d 9b       	sbis	0x0b, 5	; 11
     8ae:	fe cf       	rjmp	.-4      	; 0x8ac <__stack+0x44d>
     8b0:	6c b9       	out	0x0c, r22	; 12
     8b2:	8c ed       	ldi	r24, 0xDC	; 220
     8b4:	95 e0       	ldi	r25, 0x05	; 5
     8b6:	f9 01       	movw	r30, r18
     8b8:	31 97       	sbiw	r30, 0x01	; 1
     8ba:	f1 f7       	brne	.-4      	; 0x8b8 <__stack+0x459>
     8bc:	01 97       	sbiw	r24, 0x01	; 1
     8be:	d9 f7       	brne	.-10     	; 0x8b6 <__stack+0x457>
     8c0:	5d 9b       	sbis	0x0b, 5	; 11
     8c2:	fe cf       	rjmp	.-4      	; 0x8c0 <__stack+0x461>
     8c4:	5c b9       	out	0x0c, r21	; 12
     8c6:	5d 9b       	sbis	0x0b, 5	; 11
     8c8:	fe cf       	rjmp	.-4      	; 0x8c6 <__stack+0x467>
     8ca:	4c b9       	out	0x0c, r20	; 12
     8cc:	5d 9b       	sbis	0x0b, 5	; 11
     8ce:	fe cf       	rjmp	.-4      	; 0x8cc <__stack+0x46d>
     8d0:	7c b9       	out	0x0c, r23	; 12
     8d2:	5d 9b       	sbis	0x0b, 5	; 11
     8d4:	fe cf       	rjmp	.-4      	; 0x8d2 <__stack+0x473>
     8d6:	ac b9       	out	0x0c, r26	; 12
     8d8:	5d 9b       	sbis	0x0b, 5	; 11
     8da:	fe cf       	rjmp	.-4      	; 0x8d8 <__stack+0x479>
     8dc:	6c b9       	out	0x0c, r22	; 12
     8de:	8c ed       	ldi	r24, 0xDC	; 220
     8e0:	95 e0       	ldi	r25, 0x05	; 5
     8e2:	f9 01       	movw	r30, r18
     8e4:	31 97       	sbiw	r30, 0x01	; 1
     8e6:	f1 f7       	brne	.-4      	; 0x8e4 <__stack+0x485>
     8e8:	01 97       	sbiw	r24, 0x01	; 1
     8ea:	d9 f7       	brne	.-10     	; 0x8e2 <__stack+0x483>
     8ec:	5d 9b       	sbis	0x0b, 5	; 11
     8ee:	fe cf       	rjmp	.-4      	; 0x8ec <__stack+0x48d>
     8f0:	5c b9       	out	0x0c, r21	; 12
     8f2:	5d 9b       	sbis	0x0b, 5	; 11
     8f4:	fe cf       	rjmp	.-4      	; 0x8f2 <__stack+0x493>
     8f6:	4c b9       	out	0x0c, r20	; 12
     8f8:	5d 9b       	sbis	0x0b, 5	; 11
     8fa:	fe cf       	rjmp	.-4      	; 0x8f8 <__stack+0x499>
     8fc:	7c b9       	out	0x0c, r23	; 12
     8fe:	5d 9b       	sbis	0x0b, 5	; 11
     900:	fe cf       	rjmp	.-4      	; 0x8fe <__stack+0x49f>
     902:	ac b9       	out	0x0c, r26	; 12
     904:	5d 9b       	sbis	0x0b, 5	; 11
     906:	fe cf       	rjmp	.-4      	; 0x904 <__stack+0x4a5>
     908:	6c b9       	out	0x0c, r22	; 12
     90a:	8c ed       	ldi	r24, 0xDC	; 220
     90c:	95 e0       	ldi	r25, 0x05	; 5
     90e:	f9 01       	movw	r30, r18
     910:	31 97       	sbiw	r30, 0x01	; 1
     912:	f1 f7       	brne	.-4      	; 0x910 <__stack+0x4b1>
     914:	01 97       	sbiw	r24, 0x01	; 1
     916:	d9 f7       	brne	.-10     	; 0x90e <__stack+0x4af>
     918:	5d 9b       	sbis	0x0b, 5	; 11
     91a:	fe cf       	rjmp	.-4      	; 0x918 <__stack+0x4b9>
     91c:	5c b9       	out	0x0c, r21	; 12
     91e:	5d 9b       	sbis	0x0b, 5	; 11
     920:	fe cf       	rjmp	.-4      	; 0x91e <__stack+0x4bf>
     922:	4c b9       	out	0x0c, r20	; 12
     924:	5d 9b       	sbis	0x0b, 5	; 11
     926:	fe cf       	rjmp	.-4      	; 0x924 <__stack+0x4c5>
     928:	7c b9       	out	0x0c, r23	; 12
     92a:	5d 9b       	sbis	0x0b, 5	; 11
     92c:	fe cf       	rjmp	.-4      	; 0x92a <__stack+0x4cb>
     92e:	ac b9       	out	0x0c, r26	; 12
     930:	5d 9b       	sbis	0x0b, 5	; 11
     932:	fe cf       	rjmp	.-4      	; 0x930 <__stack+0x4d1>
     934:	6c b9       	out	0x0c, r22	; 12
     936:	8c ed       	ldi	r24, 0xDC	; 220
     938:	95 e0       	ldi	r25, 0x05	; 5
     93a:	f9 01       	movw	r30, r18
     93c:	31 97       	sbiw	r30, 0x01	; 1
     93e:	f1 f7       	brne	.-4      	; 0x93c <__stack+0x4dd>
     940:	01 97       	sbiw	r24, 0x01	; 1
     942:	d9 f7       	brne	.-10     	; 0x93a <__stack+0x4db>
     944:	5d 9b       	sbis	0x0b, 5	; 11
     946:	fe cf       	rjmp	.-4      	; 0x944 <__stack+0x4e5>
     948:	5c b9       	out	0x0c, r21	; 12
     94a:	5d 9b       	sbis	0x0b, 5	; 11
     94c:	fe cf       	rjmp	.-4      	; 0x94a <__stack+0x4eb>
     94e:	4c b9       	out	0x0c, r20	; 12
     950:	5d 9b       	sbis	0x0b, 5	; 11
     952:	fe cf       	rjmp	.-4      	; 0x950 <__stack+0x4f1>
     954:	7c b9       	out	0x0c, r23	; 12
     956:	5d 9b       	sbis	0x0b, 5	; 11
     958:	fe cf       	rjmp	.-4      	; 0x956 <__stack+0x4f7>
     95a:	ac b9       	out	0x0c, r26	; 12
     95c:	5d 9b       	sbis	0x0b, 5	; 11
     95e:	fe cf       	rjmp	.-4      	; 0x95c <__stack+0x4fd>
     960:	6c b9       	out	0x0c, r22	; 12
     962:	8c ed       	ldi	r24, 0xDC	; 220
     964:	95 e0       	ldi	r25, 0x05	; 5
     966:	f9 01       	movw	r30, r18
     968:	31 97       	sbiw	r30, 0x01	; 1
     96a:	f1 f7       	brne	.-4      	; 0x968 <__stack+0x509>
     96c:	01 97       	sbiw	r24, 0x01	; 1
     96e:	d9 f7       	brne	.-10     	; 0x966 <__stack+0x507>
     970:	5d 9b       	sbis	0x0b, 5	; 11
     972:	fe cf       	rjmp	.-4      	; 0x970 <__stack+0x511>
     974:	5c b9       	out	0x0c, r21	; 12
     976:	5d 9b       	sbis	0x0b, 5	; 11
     978:	fe cf       	rjmp	.-4      	; 0x976 <__stack+0x517>
     97a:	4c b9       	out	0x0c, r20	; 12
     97c:	5d 9b       	sbis	0x0b, 5	; 11
     97e:	fe cf       	rjmp	.-4      	; 0x97c <__stack+0x51d>
     980:	7c b9       	out	0x0c, r23	; 12
     982:	5d 9b       	sbis	0x0b, 5	; 11
     984:	fe cf       	rjmp	.-4      	; 0x982 <__stack+0x523>
     986:	ac b9       	out	0x0c, r26	; 12
     988:	5d 9b       	sbis	0x0b, 5	; 11
     98a:	fe cf       	rjmp	.-4      	; 0x988 <__stack+0x529>
     98c:	6c b9       	out	0x0c, r22	; 12
     98e:	8c ed       	ldi	r24, 0xDC	; 220
     990:	95 e0       	ldi	r25, 0x05	; 5
     992:	f9 01       	movw	r30, r18
     994:	31 97       	sbiw	r30, 0x01	; 1
     996:	f1 f7       	brne	.-4      	; 0x994 <__stack+0x535>
     998:	01 97       	sbiw	r24, 0x01	; 1
     99a:	d9 f7       	brne	.-10     	; 0x992 <__stack+0x533>
     99c:	5d 9b       	sbis	0x0b, 5	; 11
     99e:	fe cf       	rjmp	.-4      	; 0x99c <__stack+0x53d>
     9a0:	5c b9       	out	0x0c, r21	; 12
     9a2:	5d 9b       	sbis	0x0b, 5	; 11
     9a4:	fe cf       	rjmp	.-4      	; 0x9a2 <__stack+0x543>
     9a6:	4c b9       	out	0x0c, r20	; 12
     9a8:	5d 9b       	sbis	0x0b, 5	; 11
     9aa:	fe cf       	rjmp	.-4      	; 0x9a8 <__stack+0x549>
     9ac:	7c b9       	out	0x0c, r23	; 12
     9ae:	5d 9b       	sbis	0x0b, 5	; 11
     9b0:	fe cf       	rjmp	.-4      	; 0x9ae <__stack+0x54f>
     9b2:	ac b9       	out	0x0c, r26	; 12
     9b4:	5d 9b       	sbis	0x0b, 5	; 11
     9b6:	fe cf       	rjmp	.-4      	; 0x9b4 <__stack+0x555>
     9b8:	6c b9       	out	0x0c, r22	; 12
     9ba:	8c ed       	ldi	r24, 0xDC	; 220
     9bc:	95 e0       	ldi	r25, 0x05	; 5
     9be:	f9 01       	movw	r30, r18
     9c0:	31 97       	sbiw	r30, 0x01	; 1
     9c2:	f1 f7       	brne	.-4      	; 0x9c0 <__stack+0x561>
     9c4:	01 97       	sbiw	r24, 0x01	; 1
     9c6:	d9 f7       	brne	.-10     	; 0x9be <__stack+0x55f>
     9c8:	5d 9b       	sbis	0x0b, 5	; 11
     9ca:	fe cf       	rjmp	.-4      	; 0x9c8 <__stack+0x569>
     9cc:	5c b9       	out	0x0c, r21	; 12
     9ce:	5d 9b       	sbis	0x0b, 5	; 11
     9d0:	fe cf       	rjmp	.-4      	; 0x9ce <__stack+0x56f>
     9d2:	4c b9       	out	0x0c, r20	; 12
     9d4:	5d 9b       	sbis	0x0b, 5	; 11
     9d6:	fe cf       	rjmp	.-4      	; 0x9d4 <__stack+0x575>
     9d8:	bc b9       	out	0x0c, r27	; 12
     9da:	5d 9b       	sbis	0x0b, 5	; 11
     9dc:	fe cf       	rjmp	.-4      	; 0x9da <__stack+0x57b>
     9de:	1c b9       	out	0x0c, r17	; 12
     9e0:	5d 9b       	sbis	0x0b, 5	; 11
     9e2:	fe cf       	rjmp	.-4      	; 0x9e0 <__stack+0x581>
     9e4:	4c b9       	out	0x0c, r20	; 12
     9e6:	8c ed       	ldi	r24, 0xDC	; 220
     9e8:	95 e0       	ldi	r25, 0x05	; 5
     9ea:	f9 01       	movw	r30, r18
     9ec:	31 97       	sbiw	r30, 0x01	; 1
     9ee:	f1 f7       	brne	.-4      	; 0x9ec <__stack+0x58d>
     9f0:	01 97       	sbiw	r24, 0x01	; 1
     9f2:	d9 f7       	brne	.-10     	; 0x9ea <__stack+0x58b>
     9f4:	5d 9b       	sbis	0x0b, 5	; 11
     9f6:	fe cf       	rjmp	.-4      	; 0x9f4 <__stack+0x595>
     9f8:	5c b9       	out	0x0c, r21	; 12
     9fa:	5d 9b       	sbis	0x0b, 5	; 11
     9fc:	fe cf       	rjmp	.-4      	; 0x9fa <__stack+0x59b>
     9fe:	4c b9       	out	0x0c, r20	; 12
     a00:	5d 9b       	sbis	0x0b, 5	; 11
     a02:	fe cf       	rjmp	.-4      	; 0xa00 <__stack+0x5a1>
     a04:	7c b9       	out	0x0c, r23	; 12
     a06:	5d 9b       	sbis	0x0b, 5	; 11
     a08:	fe cf       	rjmp	.-4      	; 0xa06 <__stack+0x5a7>
     a0a:	ac b9       	out	0x0c, r26	; 12
     a0c:	5d 9b       	sbis	0x0b, 5	; 11
     a0e:	fe cf       	rjmp	.-4      	; 0xa0c <__stack+0x5ad>
     a10:	6c b9       	out	0x0c, r22	; 12
     a12:	ad 98       	cbi	0x15, 5	; 21
     a14:	88 ee       	ldi	r24, 0xE8	; 232
     a16:	93 e0       	ldi	r25, 0x03	; 3
     a18:	f9 01       	movw	r30, r18
     a1a:	31 97       	sbiw	r30, 0x01	; 1
     a1c:	f1 f7       	brne	.-4      	; 0xa1a <__stack+0x5bb>
     a1e:	01 97       	sbiw	r24, 0x01	; 1
     a20:	d9 f7       	brne	.-10     	; 0xa18 <__stack+0x5b9>
     a22:	ad 9a       	sbi	0x15, 5	; 21
     a24:	88 ee       	ldi	r24, 0xE8	; 232
     a26:	93 e0       	ldi	r25, 0x03	; 3
     a28:	f9 01       	movw	r30, r18
     a2a:	31 97       	sbiw	r30, 0x01	; 1
     a2c:	f1 f7       	brne	.-4      	; 0xa2a <__stack+0x5cb>
     a2e:	01 97       	sbiw	r24, 0x01	; 1
     a30:	d9 f7       	brne	.-10     	; 0xa28 <__stack+0x5c9>
     a32:	ad 98       	cbi	0x15, 5	; 21
     a34:	88 ee       	ldi	r24, 0xE8	; 232
     a36:	93 e0       	ldi	r25, 0x03	; 3
     a38:	f9 01       	movw	r30, r18
     a3a:	31 97       	sbiw	r30, 0x01	; 1
     a3c:	f1 f7       	brne	.-4      	; 0xa3a <__stack+0x5db>
     a3e:	01 97       	sbiw	r24, 0x01	; 1
     a40:	d9 f7       	brne	.-10     	; 0xa38 <__stack+0x5d9>
     a42:	ad 9a       	sbi	0x15, 5	; 21
     a44:	88 ee       	ldi	r24, 0xE8	; 232
     a46:	93 e0       	ldi	r25, 0x03	; 3
     a48:	f9 01       	movw	r30, r18
     a4a:	31 97       	sbiw	r30, 0x01	; 1
     a4c:	f1 f7       	brne	.-4      	; 0xa4a <__stack+0x5eb>
     a4e:	01 97       	sbiw	r24, 0x01	; 1
     a50:	d9 f7       	brne	.-10     	; 0xa48 <__stack+0x5e9>
     a52:	81 e0       	ldi	r24, 0x01	; 1
     a54:	90 e0       	ldi	r25, 0x00	; 0
     a56:	90 93 63 00 	sts	0x0063, r25
     a5a:	80 93 62 00 	sts	0x0062, r24
     a5e:	5d 9b       	sbis	0x0b, 5	; 11
     a60:	fe cf       	rjmp	.-4      	; 0xa5e <__stack+0x5ff>
     a62:	5c b9       	out	0x0c, r21	; 12
     a64:	5d 9b       	sbis	0x0b, 5	; 11
     a66:	fe cf       	rjmp	.-4      	; 0xa64 <__stack+0x605>
     a68:	4c b9       	out	0x0c, r20	; 12
     a6a:	5d 9b       	sbis	0x0b, 5	; 11
     a6c:	fe cf       	rjmp	.-4      	; 0xa6a <__stack+0x60b>
     a6e:	bc b9       	out	0x0c, r27	; 12
     a70:	5d 9b       	sbis	0x0b, 5	; 11
     a72:	fe cf       	rjmp	.-4      	; 0xa70 <__stack+0x611>
     a74:	1c b9       	out	0x0c, r17	; 12
     a76:	5d 9b       	sbis	0x0b, 5	; 11
     a78:	fe cf       	rjmp	.-4      	; 0xa76 <__stack+0x617>
     a7a:	4c b9       	out	0x0c, r20	; 12
     a7c:	8c ed       	ldi	r24, 0xDC	; 220
     a7e:	95 e0       	ldi	r25, 0x05	; 5
     a80:	f9 01       	movw	r30, r18
     a82:	31 97       	sbiw	r30, 0x01	; 1
     a84:	f1 f7       	brne	.-4      	; 0xa82 <__stack+0x623>
     a86:	01 97       	sbiw	r24, 0x01	; 1
     a88:	d9 f7       	brne	.-10     	; 0xa80 <__stack+0x621>
     a8a:	5d 9b       	sbis	0x0b, 5	; 11
     a8c:	fe cf       	rjmp	.-4      	; 0xa8a <__stack+0x62b>
     a8e:	5c b9       	out	0x0c, r21	; 12
     a90:	5d 9b       	sbis	0x0b, 5	; 11
     a92:	fe cf       	rjmp	.-4      	; 0xa90 <__stack+0x631>
     a94:	4c b9       	out	0x0c, r20	; 12
     a96:	5d 9b       	sbis	0x0b, 5	; 11
     a98:	fe cf       	rjmp	.-4      	; 0xa96 <__stack+0x637>
     a9a:	7c b9       	out	0x0c, r23	; 12
     a9c:	5d 9b       	sbis	0x0b, 5	; 11
     a9e:	fe cf       	rjmp	.-4      	; 0xa9c <__stack+0x63d>
     aa0:	ac b9       	out	0x0c, r26	; 12
     aa2:	5d 9b       	sbis	0x0b, 5	; 11
     aa4:	fe cf       	rjmp	.-4      	; 0xaa2 <__stack+0x643>
     aa6:	6c b9       	out	0x0c, r22	; 12
     aa8:	8c ed       	ldi	r24, 0xDC	; 220
     aaa:	95 e0       	ldi	r25, 0x05	; 5
     aac:	f9 01       	movw	r30, r18
     aae:	31 97       	sbiw	r30, 0x01	; 1
     ab0:	f1 f7       	brne	.-4      	; 0xaae <__stack+0x64f>
     ab2:	01 97       	sbiw	r24, 0x01	; 1
     ab4:	d9 f7       	brne	.-10     	; 0xaac <__stack+0x64d>
     ab6:	5f 9b       	sbis	0x0b, 7	; 11
     ab8:	fe cf       	rjmp	.-4      	; 0xab6 <__stack+0x657>
     aba:	8c b1       	in	r24, 0x0c	; 12
     abc:	90 e0       	ldi	r25, 0x00	; 0
     abe:	90 93 63 00 	sts	0x0063, r25
     ac2:	80 93 62 00 	sts	0x0062, r24
     ac6:	5f 9b       	sbis	0x0b, 7	; 11
     ac8:	fe cf       	rjmp	.-4      	; 0xac6 <__stack+0x667>
     aca:	8c b1       	in	r24, 0x0c	; 12
     acc:	90 e0       	ldi	r25, 0x00	; 0
     ace:	90 93 63 00 	sts	0x0063, r25
     ad2:	80 93 62 00 	sts	0x0062, r24
     ad6:	5f 9b       	sbis	0x0b, 7	; 11
     ad8:	fe cf       	rjmp	.-4      	; 0xad6 <__stack+0x677>
     ada:	8c b1       	in	r24, 0x0c	; 12
     adc:	90 e0       	ldi	r25, 0x00	; 0
     ade:	90 93 63 00 	sts	0x0063, r25
     ae2:	80 93 62 00 	sts	0x0062, r24
     ae6:	80 91 62 00 	lds	r24, 0x0062
     aea:	90 91 63 00 	lds	r25, 0x0063
     aee:	88 3d       	cpi	r24, 0xD8	; 216
     af0:	91 05       	cpc	r25, r1
     af2:	09 f0       	breq	.+2      	; 0xaf6 <__stack+0x697>
     af4:	b6 c1       	rjmp	.+876    	; 0xe62 <__stack+0xa03>
     af6:	10 92 63 00 	sts	0x0063, r1
     afa:	10 92 62 00 	sts	0x0062, r1
     afe:	5d 9b       	sbis	0x0b, 5	; 11
     b00:	fe cf       	rjmp	.-4      	; 0xafe <__stack+0x69f>
     b02:	5c b9       	out	0x0c, r21	; 12
     b04:	5d 9b       	sbis	0x0b, 5	; 11
     b06:	fe cf       	rjmp	.-4      	; 0xb04 <__stack+0x6a5>
     b08:	4c b9       	out	0x0c, r20	; 12
     b0a:	5d 9b       	sbis	0x0b, 5	; 11
     b0c:	fe cf       	rjmp	.-4      	; 0xb0a <__stack+0x6ab>
     b0e:	fc b8       	out	0x0c, r15	; 12
     b10:	5d 9b       	sbis	0x0b, 5	; 11
     b12:	fe cf       	rjmp	.-4      	; 0xb10 <__stack+0x6b1>
     b14:	82 ea       	ldi	r24, 0xA2	; 162
     b16:	8c b9       	out	0x0c, r24	; 12
     b18:	5d 9b       	sbis	0x0b, 5	; 11
     b1a:	fe cf       	rjmp	.-4      	; 0xb18 <__stack+0x6b9>
     b1c:	0c b9       	out	0x0c, r16	; 12
     b1e:	8c ed       	ldi	r24, 0xDC	; 220
     b20:	95 e0       	ldi	r25, 0x05	; 5
     b22:	f9 01       	movw	r30, r18
     b24:	31 97       	sbiw	r30, 0x01	; 1
     b26:	f1 f7       	brne	.-4      	; 0xb24 <__stack+0x6c5>
     b28:	01 97       	sbiw	r24, 0x01	; 1
     b2a:	d9 f7       	brne	.-10     	; 0xb22 <__stack+0x6c3>
     b2c:	5d 9b       	sbis	0x0b, 5	; 11
     b2e:	fe cf       	rjmp	.-4      	; 0xb2c <__stack+0x6cd>
     b30:	5c b9       	out	0x0c, r21	; 12
     b32:	5d 9b       	sbis	0x0b, 5	; 11
     b34:	fe cf       	rjmp	.-4      	; 0xb32 <__stack+0x6d3>
     b36:	4c b9       	out	0x0c, r20	; 12
     b38:	5d 9b       	sbis	0x0b, 5	; 11
     b3a:	fe cf       	rjmp	.-4      	; 0xb38 <__stack+0x6d9>
     b3c:	7c b9       	out	0x0c, r23	; 12
     b3e:	5d 9b       	sbis	0x0b, 5	; 11
     b40:	fe cf       	rjmp	.-4      	; 0xb3e <__stack+0x6df>
     b42:	ac b9       	out	0x0c, r26	; 12
     b44:	5d 9b       	sbis	0x0b, 5	; 11
     b46:	fe cf       	rjmp	.-4      	; 0xb44 <__stack+0x6e5>
     b48:	6c b9       	out	0x0c, r22	; 12
     b4a:	8c ed       	ldi	r24, 0xDC	; 220
     b4c:	95 e0       	ldi	r25, 0x05	; 5
     b4e:	f9 01       	movw	r30, r18
     b50:	31 97       	sbiw	r30, 0x01	; 1
     b52:	f1 f7       	brne	.-4      	; 0xb50 <__stack+0x6f1>
     b54:	01 97       	sbiw	r24, 0x01	; 1
     b56:	d9 f7       	brne	.-10     	; 0xb4e <__stack+0x6ef>
     b58:	5d 9b       	sbis	0x0b, 5	; 11
     b5a:	fe cf       	rjmp	.-4      	; 0xb58 <__stack+0x6f9>
     b5c:	5c b9       	out	0x0c, r21	; 12
     b5e:	5d 9b       	sbis	0x0b, 5	; 11
     b60:	fe cf       	rjmp	.-4      	; 0xb5e <__stack+0x6ff>
     b62:	4c b9       	out	0x0c, r20	; 12
     b64:	5d 9b       	sbis	0x0b, 5	; 11
     b66:	fe cf       	rjmp	.-4      	; 0xb64 <__stack+0x705>
     b68:	7c b9       	out	0x0c, r23	; 12
     b6a:	5d 9b       	sbis	0x0b, 5	; 11
     b6c:	fe cf       	rjmp	.-4      	; 0xb6a <__stack+0x70b>
     b6e:	ac b9       	out	0x0c, r26	; 12
     b70:	5d 9b       	sbis	0x0b, 5	; 11
     b72:	fe cf       	rjmp	.-4      	; 0xb70 <__stack+0x711>
     b74:	6c b9       	out	0x0c, r22	; 12
     b76:	8c ed       	ldi	r24, 0xDC	; 220
     b78:	95 e0       	ldi	r25, 0x05	; 5
     b7a:	f9 01       	movw	r30, r18
     b7c:	31 97       	sbiw	r30, 0x01	; 1
     b7e:	f1 f7       	brne	.-4      	; 0xb7c <__stack+0x71d>
     b80:	01 97       	sbiw	r24, 0x01	; 1
     b82:	d9 f7       	brne	.-10     	; 0xb7a <__stack+0x71b>
     b84:	5d 9b       	sbis	0x0b, 5	; 11
     b86:	fe cf       	rjmp	.-4      	; 0xb84 <__stack+0x725>
     b88:	5c b9       	out	0x0c, r21	; 12
     b8a:	5d 9b       	sbis	0x0b, 5	; 11
     b8c:	fe cf       	rjmp	.-4      	; 0xb8a <__stack+0x72b>
     b8e:	4c b9       	out	0x0c, r20	; 12
     b90:	5d 9b       	sbis	0x0b, 5	; 11
     b92:	fe cf       	rjmp	.-4      	; 0xb90 <__stack+0x731>
     b94:	7c b9       	out	0x0c, r23	; 12
     b96:	5d 9b       	sbis	0x0b, 5	; 11
     b98:	fe cf       	rjmp	.-4      	; 0xb96 <__stack+0x737>
     b9a:	ac b9       	out	0x0c, r26	; 12
     b9c:	5d 9b       	sbis	0x0b, 5	; 11
     b9e:	fe cf       	rjmp	.-4      	; 0xb9c <__stack+0x73d>
     ba0:	6c b9       	out	0x0c, r22	; 12
     ba2:	8c ed       	ldi	r24, 0xDC	; 220
     ba4:	95 e0       	ldi	r25, 0x05	; 5
     ba6:	f9 01       	movw	r30, r18
     ba8:	31 97       	sbiw	r30, 0x01	; 1
     baa:	f1 f7       	brne	.-4      	; 0xba8 <__stack+0x749>
     bac:	01 97       	sbiw	r24, 0x01	; 1
     bae:	d9 f7       	brne	.-10     	; 0xba6 <__stack+0x747>
     bb0:	5d 9b       	sbis	0x0b, 5	; 11
     bb2:	fe cf       	rjmp	.-4      	; 0xbb0 <__stack+0x751>
     bb4:	5c b9       	out	0x0c, r21	; 12
     bb6:	5d 9b       	sbis	0x0b, 5	; 11
     bb8:	fe cf       	rjmp	.-4      	; 0xbb6 <__stack+0x757>
     bba:	4c b9       	out	0x0c, r20	; 12
     bbc:	5d 9b       	sbis	0x0b, 5	; 11
     bbe:	fe cf       	rjmp	.-4      	; 0xbbc <__stack+0x75d>
     bc0:	7c b9       	out	0x0c, r23	; 12
     bc2:	5d 9b       	sbis	0x0b, 5	; 11
     bc4:	fe cf       	rjmp	.-4      	; 0xbc2 <__stack+0x763>
     bc6:	ac b9       	out	0x0c, r26	; 12
     bc8:	5d 9b       	sbis	0x0b, 5	; 11
     bca:	fe cf       	rjmp	.-4      	; 0xbc8 <__stack+0x769>
     bcc:	6c b9       	out	0x0c, r22	; 12
     bce:	8c ed       	ldi	r24, 0xDC	; 220
     bd0:	95 e0       	ldi	r25, 0x05	; 5
     bd2:	f9 01       	movw	r30, r18
     bd4:	31 97       	sbiw	r30, 0x01	; 1
     bd6:	f1 f7       	brne	.-4      	; 0xbd4 <__stack+0x775>
     bd8:	01 97       	sbiw	r24, 0x01	; 1
     bda:	d9 f7       	brne	.-10     	; 0xbd2 <__stack+0x773>
     bdc:	5d 9b       	sbis	0x0b, 5	; 11
     bde:	fe cf       	rjmp	.-4      	; 0xbdc <__stack+0x77d>
     be0:	5c b9       	out	0x0c, r21	; 12
     be2:	5d 9b       	sbis	0x0b, 5	; 11
     be4:	fe cf       	rjmp	.-4      	; 0xbe2 <__stack+0x783>
     be6:	4c b9       	out	0x0c, r20	; 12
     be8:	5d 9b       	sbis	0x0b, 5	; 11
     bea:	fe cf       	rjmp	.-4      	; 0xbe8 <__stack+0x789>
     bec:	7c b9       	out	0x0c, r23	; 12
     bee:	5d 9b       	sbis	0x0b, 5	; 11
     bf0:	fe cf       	rjmp	.-4      	; 0xbee <__stack+0x78f>
     bf2:	ac b9       	out	0x0c, r26	; 12
     bf4:	5d 9b       	sbis	0x0b, 5	; 11
     bf6:	fe cf       	rjmp	.-4      	; 0xbf4 <__stack+0x795>
     bf8:	6c b9       	out	0x0c, r22	; 12
     bfa:	8c ed       	ldi	r24, 0xDC	; 220
     bfc:	95 e0       	ldi	r25, 0x05	; 5
     bfe:	f9 01       	movw	r30, r18
     c00:	31 97       	sbiw	r30, 0x01	; 1
     c02:	f1 f7       	brne	.-4      	; 0xc00 <__stack+0x7a1>
     c04:	01 97       	sbiw	r24, 0x01	; 1
     c06:	d9 f7       	brne	.-10     	; 0xbfe <__stack+0x79f>
     c08:	5d 9b       	sbis	0x0b, 5	; 11
     c0a:	fe cf       	rjmp	.-4      	; 0xc08 <__stack+0x7a9>
     c0c:	5c b9       	out	0x0c, r21	; 12
     c0e:	5d 9b       	sbis	0x0b, 5	; 11
     c10:	fe cf       	rjmp	.-4      	; 0xc0e <__stack+0x7af>
     c12:	4c b9       	out	0x0c, r20	; 12
     c14:	5d 9b       	sbis	0x0b, 5	; 11
     c16:	fe cf       	rjmp	.-4      	; 0xc14 <__stack+0x7b5>
     c18:	7c b9       	out	0x0c, r23	; 12
     c1a:	5d 9b       	sbis	0x0b, 5	; 11
     c1c:	fe cf       	rjmp	.-4      	; 0xc1a <__stack+0x7bb>
     c1e:	ac b9       	out	0x0c, r26	; 12
     c20:	5d 9b       	sbis	0x0b, 5	; 11
     c22:	fe cf       	rjmp	.-4      	; 0xc20 <__stack+0x7c1>
     c24:	6c b9       	out	0x0c, r22	; 12
     c26:	8c ed       	ldi	r24, 0xDC	; 220
     c28:	95 e0       	ldi	r25, 0x05	; 5
     c2a:	f9 01       	movw	r30, r18
     c2c:	31 97       	sbiw	r30, 0x01	; 1
     c2e:	f1 f7       	brne	.-4      	; 0xc2c <__stack+0x7cd>
     c30:	01 97       	sbiw	r24, 0x01	; 1
     c32:	d9 f7       	brne	.-10     	; 0xc2a <__stack+0x7cb>
     c34:	5d 9b       	sbis	0x0b, 5	; 11
     c36:	fe cf       	rjmp	.-4      	; 0xc34 <__stack+0x7d5>
     c38:	5c b9       	out	0x0c, r21	; 12
     c3a:	5d 9b       	sbis	0x0b, 5	; 11
     c3c:	fe cf       	rjmp	.-4      	; 0xc3a <__stack+0x7db>
     c3e:	4c b9       	out	0x0c, r20	; 12
     c40:	5d 9b       	sbis	0x0b, 5	; 11
     c42:	fe cf       	rjmp	.-4      	; 0xc40 <__stack+0x7e1>
     c44:	7c b9       	out	0x0c, r23	; 12
     c46:	5d 9b       	sbis	0x0b, 5	; 11
     c48:	fe cf       	rjmp	.-4      	; 0xc46 <__stack+0x7e7>
     c4a:	ac b9       	out	0x0c, r26	; 12
     c4c:	5d 9b       	sbis	0x0b, 5	; 11
     c4e:	fe cf       	rjmp	.-4      	; 0xc4c <__stack+0x7ed>
     c50:	6c b9       	out	0x0c, r22	; 12
     c52:	8c ed       	ldi	r24, 0xDC	; 220
     c54:	95 e0       	ldi	r25, 0x05	; 5
     c56:	f9 01       	movw	r30, r18
     c58:	31 97       	sbiw	r30, 0x01	; 1
     c5a:	f1 f7       	brne	.-4      	; 0xc58 <__stack+0x7f9>
     c5c:	01 97       	sbiw	r24, 0x01	; 1
     c5e:	d9 f7       	brne	.-10     	; 0xc56 <__stack+0x7f7>
     c60:	5d 9b       	sbis	0x0b, 5	; 11
     c62:	fe cf       	rjmp	.-4      	; 0xc60 <__stack+0x801>
     c64:	5c b9       	out	0x0c, r21	; 12
     c66:	5d 9b       	sbis	0x0b, 5	; 11
     c68:	fe cf       	rjmp	.-4      	; 0xc66 <__stack+0x807>
     c6a:	4c b9       	out	0x0c, r20	; 12
     c6c:	5d 9b       	sbis	0x0b, 5	; 11
     c6e:	fe cf       	rjmp	.-4      	; 0xc6c <__stack+0x80d>
     c70:	7c b9       	out	0x0c, r23	; 12
     c72:	5d 9b       	sbis	0x0b, 5	; 11
     c74:	fe cf       	rjmp	.-4      	; 0xc72 <__stack+0x813>
     c76:	ac b9       	out	0x0c, r26	; 12
     c78:	5d 9b       	sbis	0x0b, 5	; 11
     c7a:	fe cf       	rjmp	.-4      	; 0xc78 <__stack+0x819>
     c7c:	6c b9       	out	0x0c, r22	; 12
     c7e:	8c ed       	ldi	r24, 0xDC	; 220
     c80:	95 e0       	ldi	r25, 0x05	; 5
     c82:	f9 01       	movw	r30, r18
     c84:	31 97       	sbiw	r30, 0x01	; 1
     c86:	f1 f7       	brne	.-4      	; 0xc84 <__stack+0x825>
     c88:	01 97       	sbiw	r24, 0x01	; 1
     c8a:	d9 f7       	brne	.-10     	; 0xc82 <__stack+0x823>
     c8c:	5d 9b       	sbis	0x0b, 5	; 11
     c8e:	fe cf       	rjmp	.-4      	; 0xc8c <__stack+0x82d>
     c90:	5c b9       	out	0x0c, r21	; 12
     c92:	5d 9b       	sbis	0x0b, 5	; 11
     c94:	fe cf       	rjmp	.-4      	; 0xc92 <__stack+0x833>
     c96:	4c b9       	out	0x0c, r20	; 12
     c98:	5d 9b       	sbis	0x0b, 5	; 11
     c9a:	fe cf       	rjmp	.-4      	; 0xc98 <__stack+0x839>
     c9c:	7c b9       	out	0x0c, r23	; 12
     c9e:	5d 9b       	sbis	0x0b, 5	; 11
     ca0:	fe cf       	rjmp	.-4      	; 0xc9e <__stack+0x83f>
     ca2:	ac b9       	out	0x0c, r26	; 12
     ca4:	5d 9b       	sbis	0x0b, 5	; 11
     ca6:	fe cf       	rjmp	.-4      	; 0xca4 <__stack+0x845>
     ca8:	6c b9       	out	0x0c, r22	; 12
     caa:	8c ed       	ldi	r24, 0xDC	; 220
     cac:	95 e0       	ldi	r25, 0x05	; 5
     cae:	f9 01       	movw	r30, r18
     cb0:	31 97       	sbiw	r30, 0x01	; 1
     cb2:	f1 f7       	brne	.-4      	; 0xcb0 <__stack+0x851>
     cb4:	01 97       	sbiw	r24, 0x01	; 1
     cb6:	d9 f7       	brne	.-10     	; 0xcae <__stack+0x84f>
     cb8:	5d 9b       	sbis	0x0b, 5	; 11
     cba:	fe cf       	rjmp	.-4      	; 0xcb8 <__stack+0x859>
     cbc:	5c b9       	out	0x0c, r21	; 12
     cbe:	5d 9b       	sbis	0x0b, 5	; 11
     cc0:	fe cf       	rjmp	.-4      	; 0xcbe <__stack+0x85f>
     cc2:	4c b9       	out	0x0c, r20	; 12
     cc4:	5d 9b       	sbis	0x0b, 5	; 11
     cc6:	fe cf       	rjmp	.-4      	; 0xcc4 <__stack+0x865>
     cc8:	7c b9       	out	0x0c, r23	; 12
     cca:	5d 9b       	sbis	0x0b, 5	; 11
     ccc:	fe cf       	rjmp	.-4      	; 0xcca <__stack+0x86b>
     cce:	ac b9       	out	0x0c, r26	; 12
     cd0:	5d 9b       	sbis	0x0b, 5	; 11
     cd2:	fe cf       	rjmp	.-4      	; 0xcd0 <__stack+0x871>
     cd4:	6c b9       	out	0x0c, r22	; 12
     cd6:	8c ed       	ldi	r24, 0xDC	; 220
     cd8:	95 e0       	ldi	r25, 0x05	; 5
     cda:	f9 01       	movw	r30, r18
     cdc:	31 97       	sbiw	r30, 0x01	; 1
     cde:	f1 f7       	brne	.-4      	; 0xcdc <__stack+0x87d>
     ce0:	01 97       	sbiw	r24, 0x01	; 1
     ce2:	d9 f7       	brne	.-10     	; 0xcda <__stack+0x87b>
     ce4:	5d 9b       	sbis	0x0b, 5	; 11
     ce6:	fe cf       	rjmp	.-4      	; 0xce4 <__stack+0x885>
     ce8:	5c b9       	out	0x0c, r21	; 12
     cea:	5d 9b       	sbis	0x0b, 5	; 11
     cec:	fe cf       	rjmp	.-4      	; 0xcea <__stack+0x88b>
     cee:	4c b9       	out	0x0c, r20	; 12
     cf0:	5d 9b       	sbis	0x0b, 5	; 11
     cf2:	fe cf       	rjmp	.-4      	; 0xcf0 <__stack+0x891>
     cf4:	bc b9       	out	0x0c, r27	; 12
     cf6:	5d 9b       	sbis	0x0b, 5	; 11
     cf8:	fe cf       	rjmp	.-4      	; 0xcf6 <__stack+0x897>
     cfa:	1c b9       	out	0x0c, r17	; 12
     cfc:	5d 9b       	sbis	0x0b, 5	; 11
     cfe:	fe cf       	rjmp	.-4      	; 0xcfc <__stack+0x89d>
     d00:	4c b9       	out	0x0c, r20	; 12
     d02:	8c ed       	ldi	r24, 0xDC	; 220
     d04:	95 e0       	ldi	r25, 0x05	; 5
     d06:	f9 01       	movw	r30, r18
     d08:	31 97       	sbiw	r30, 0x01	; 1
     d0a:	f1 f7       	brne	.-4      	; 0xd08 <__stack+0x8a9>
     d0c:	01 97       	sbiw	r24, 0x01	; 1
     d0e:	d9 f7       	brne	.-10     	; 0xd06 <__stack+0x8a7>
     d10:	5d 9b       	sbis	0x0b, 5	; 11
     d12:	fe cf       	rjmp	.-4      	; 0xd10 <__stack+0x8b1>
     d14:	5c b9       	out	0x0c, r21	; 12
     d16:	5d 9b       	sbis	0x0b, 5	; 11
     d18:	fe cf       	rjmp	.-4      	; 0xd16 <__stack+0x8b7>
     d1a:	4c b9       	out	0x0c, r20	; 12
     d1c:	5d 9b       	sbis	0x0b, 5	; 11
     d1e:	fe cf       	rjmp	.-4      	; 0xd1c <__stack+0x8bd>
     d20:	7c b9       	out	0x0c, r23	; 12
     d22:	5d 9b       	sbis	0x0b, 5	; 11
     d24:	fe cf       	rjmp	.-4      	; 0xd22 <__stack+0x8c3>
     d26:	ac b9       	out	0x0c, r26	; 12
     d28:	5d 9b       	sbis	0x0b, 5	; 11
     d2a:	fe cf       	rjmp	.-4      	; 0xd28 <__stack+0x8c9>
     d2c:	6c b9       	out	0x0c, r22	; 12
     d2e:	ad 98       	cbi	0x15, 5	; 21
     d30:	88 ee       	ldi	r24, 0xE8	; 232
     d32:	93 e0       	ldi	r25, 0x03	; 3
     d34:	f9 01       	movw	r30, r18
     d36:	31 97       	sbiw	r30, 0x01	; 1
     d38:	f1 f7       	brne	.-4      	; 0xd36 <__stack+0x8d7>
     d3a:	01 97       	sbiw	r24, 0x01	; 1
     d3c:	d9 f7       	brne	.-10     	; 0xd34 <__stack+0x8d5>
     d3e:	ad 9a       	sbi	0x15, 5	; 21
     d40:	88 ee       	ldi	r24, 0xE8	; 232
     d42:	93 e0       	ldi	r25, 0x03	; 3
     d44:	f9 01       	movw	r30, r18
     d46:	31 97       	sbiw	r30, 0x01	; 1
     d48:	f1 f7       	brne	.-4      	; 0xd46 <__stack+0x8e7>
     d4a:	01 97       	sbiw	r24, 0x01	; 1
     d4c:	d9 f7       	brne	.-10     	; 0xd44 <__stack+0x8e5>
     d4e:	ad 98       	cbi	0x15, 5	; 21
     d50:	88 ee       	ldi	r24, 0xE8	; 232
     d52:	93 e0       	ldi	r25, 0x03	; 3
     d54:	f9 01       	movw	r30, r18
     d56:	31 97       	sbiw	r30, 0x01	; 1
     d58:	f1 f7       	brne	.-4      	; 0xd56 <__stack+0x8f7>
     d5a:	01 97       	sbiw	r24, 0x01	; 1
     d5c:	d9 f7       	brne	.-10     	; 0xd54 <__stack+0x8f5>
     d5e:	ad 9a       	sbi	0x15, 5	; 21
     d60:	88 ee       	ldi	r24, 0xE8	; 232
     d62:	93 e0       	ldi	r25, 0x03	; 3
     d64:	f9 01       	movw	r30, r18
     d66:	31 97       	sbiw	r30, 0x01	; 1
     d68:	f1 f7       	brne	.-4      	; 0xd66 <__stack+0x907>
     d6a:	01 97       	sbiw	r24, 0x01	; 1
     d6c:	d9 f7       	brne	.-10     	; 0xd64 <__stack+0x905>
     d6e:	ad 98       	cbi	0x15, 5	; 21
     d70:	88 ee       	ldi	r24, 0xE8	; 232
     d72:	93 e0       	ldi	r25, 0x03	; 3
     d74:	f9 01       	movw	r30, r18
     d76:	31 97       	sbiw	r30, 0x01	; 1
     d78:	f1 f7       	brne	.-4      	; 0xd76 <__stack+0x917>
     d7a:	01 97       	sbiw	r24, 0x01	; 1
     d7c:	d9 f7       	brne	.-10     	; 0xd74 <__stack+0x915>
     d7e:	ad 9a       	sbi	0x15, 5	; 21
     d80:	88 ee       	ldi	r24, 0xE8	; 232
     d82:	93 e0       	ldi	r25, 0x03	; 3
     d84:	f9 01       	movw	r30, r18
     d86:	31 97       	sbiw	r30, 0x01	; 1
     d88:	f1 f7       	brne	.-4      	; 0xd86 <__stack+0x927>
     d8a:	01 97       	sbiw	r24, 0x01	; 1
     d8c:	d9 f7       	brne	.-10     	; 0xd84 <__stack+0x925>
     d8e:	ad 98       	cbi	0x15, 5	; 21
     d90:	88 ee       	ldi	r24, 0xE8	; 232
     d92:	93 e0       	ldi	r25, 0x03	; 3
     d94:	f9 01       	movw	r30, r18
     d96:	31 97       	sbiw	r30, 0x01	; 1
     d98:	f1 f7       	brne	.-4      	; 0xd96 <__stack+0x937>
     d9a:	01 97       	sbiw	r24, 0x01	; 1
     d9c:	d9 f7       	brne	.-10     	; 0xd94 <__stack+0x935>
     d9e:	ad 9a       	sbi	0x15, 5	; 21
     da0:	88 ee       	ldi	r24, 0xE8	; 232
     da2:	93 e0       	ldi	r25, 0x03	; 3
     da4:	f9 01       	movw	r30, r18
     da6:	31 97       	sbiw	r30, 0x01	; 1
     da8:	f1 f7       	brne	.-4      	; 0xda6 <__stack+0x947>
     daa:	01 97       	sbiw	r24, 0x01	; 1
     dac:	d9 f7       	brne	.-10     	; 0xda4 <__stack+0x945>
     dae:	ad 98       	cbi	0x15, 5	; 21
     db0:	88 ee       	ldi	r24, 0xE8	; 232
     db2:	93 e0       	ldi	r25, 0x03	; 3
     db4:	f9 01       	movw	r30, r18
     db6:	31 97       	sbiw	r30, 0x01	; 1
     db8:	f1 f7       	brne	.-4      	; 0xdb6 <__stack+0x957>
     dba:	01 97       	sbiw	r24, 0x01	; 1
     dbc:	d9 f7       	brne	.-10     	; 0xdb4 <__stack+0x955>
     dbe:	ad 9a       	sbi	0x15, 5	; 21
     dc0:	88 ee       	ldi	r24, 0xE8	; 232
     dc2:	93 e0       	ldi	r25, 0x03	; 3
     dc4:	f9 01       	movw	r30, r18
     dc6:	31 97       	sbiw	r30, 0x01	; 1
     dc8:	f1 f7       	brne	.-4      	; 0xdc6 <__stack+0x967>
     dca:	01 97       	sbiw	r24, 0x01	; 1
     dcc:	d9 f7       	brne	.-10     	; 0xdc4 <__stack+0x965>
     dce:	81 e0       	ldi	r24, 0x01	; 1
     dd0:	90 e0       	ldi	r25, 0x00	; 0
     dd2:	90 93 63 00 	sts	0x0063, r25
     dd6:	80 93 62 00 	sts	0x0062, r24
     dda:	5d 9b       	sbis	0x0b, 5	; 11
     ddc:	fe cf       	rjmp	.-4      	; 0xdda <__stack+0x97b>
     dde:	5c b9       	out	0x0c, r21	; 12
     de0:	5d 9b       	sbis	0x0b, 5	; 11
     de2:	fe cf       	rjmp	.-4      	; 0xde0 <__stack+0x981>
     de4:	4c b9       	out	0x0c, r20	; 12
     de6:	5d 9b       	sbis	0x0b, 5	; 11
     de8:	fe cf       	rjmp	.-4      	; 0xde6 <__stack+0x987>
     dea:	bc b9       	out	0x0c, r27	; 12
     dec:	5d 9b       	sbis	0x0b, 5	; 11
     dee:	fe cf       	rjmp	.-4      	; 0xdec <__stack+0x98d>
     df0:	1c b9       	out	0x0c, r17	; 12
     df2:	5d 9b       	sbis	0x0b, 5	; 11
     df4:	fe cf       	rjmp	.-4      	; 0xdf2 <__stack+0x993>
     df6:	4c b9       	out	0x0c, r20	; 12
     df8:	8c ed       	ldi	r24, 0xDC	; 220
     dfa:	95 e0       	ldi	r25, 0x05	; 5
     dfc:	f9 01       	movw	r30, r18
     dfe:	31 97       	sbiw	r30, 0x01	; 1
     e00:	f1 f7       	brne	.-4      	; 0xdfe <__stack+0x99f>
     e02:	01 97       	sbiw	r24, 0x01	; 1
     e04:	d9 f7       	brne	.-10     	; 0xdfc <__stack+0x99d>
     e06:	5d 9b       	sbis	0x0b, 5	; 11
     e08:	fe cf       	rjmp	.-4      	; 0xe06 <__stack+0x9a7>
     e0a:	5c b9       	out	0x0c, r21	; 12
     e0c:	5d 9b       	sbis	0x0b, 5	; 11
     e0e:	fe cf       	rjmp	.-4      	; 0xe0c <__stack+0x9ad>
     e10:	4c b9       	out	0x0c, r20	; 12
     e12:	5d 9b       	sbis	0x0b, 5	; 11
     e14:	fe cf       	rjmp	.-4      	; 0xe12 <__stack+0x9b3>
     e16:	7c b9       	out	0x0c, r23	; 12
     e18:	5d 9b       	sbis	0x0b, 5	; 11
     e1a:	fe cf       	rjmp	.-4      	; 0xe18 <__stack+0x9b9>
     e1c:	ac b9       	out	0x0c, r26	; 12
     e1e:	5d 9b       	sbis	0x0b, 5	; 11
     e20:	fe cf       	rjmp	.-4      	; 0xe1e <__stack+0x9bf>
     e22:	6c b9       	out	0x0c, r22	; 12
     e24:	8c ed       	ldi	r24, 0xDC	; 220
     e26:	95 e0       	ldi	r25, 0x05	; 5
     e28:	f9 01       	movw	r30, r18
     e2a:	31 97       	sbiw	r30, 0x01	; 1
     e2c:	f1 f7       	brne	.-4      	; 0xe2a <__stack+0x9cb>
     e2e:	01 97       	sbiw	r24, 0x01	; 1
     e30:	d9 f7       	brne	.-10     	; 0xe28 <__stack+0x9c9>
     e32:	5f 9b       	sbis	0x0b, 7	; 11
     e34:	fe cf       	rjmp	.-4      	; 0xe32 <__stack+0x9d3>
     e36:	8c b1       	in	r24, 0x0c	; 12
     e38:	90 e0       	ldi	r25, 0x00	; 0
     e3a:	90 93 63 00 	sts	0x0063, r25
     e3e:	80 93 62 00 	sts	0x0062, r24
     e42:	5f 9b       	sbis	0x0b, 7	; 11
     e44:	fe cf       	rjmp	.-4      	; 0xe42 <__stack+0x9e3>
     e46:	8c b1       	in	r24, 0x0c	; 12
     e48:	90 e0       	ldi	r25, 0x00	; 0
     e4a:	90 93 63 00 	sts	0x0063, r25
     e4e:	80 93 62 00 	sts	0x0062, r24
     e52:	5f 9b       	sbis	0x0b, 7	; 11
     e54:	fe cf       	rjmp	.-4      	; 0xe52 <__stack+0x9f3>
     e56:	8c b1       	in	r24, 0x0c	; 12
     e58:	90 e0       	ldi	r25, 0x00	; 0
     e5a:	90 93 63 00 	sts	0x0063, r25
     e5e:	80 93 62 00 	sts	0x0062, r24
     e62:	80 91 62 00 	lds	r24, 0x0062
     e66:	90 91 63 00 	lds	r25, 0x0063
     e6a:	8c 3a       	cpi	r24, 0xAC	; 172
     e6c:	91 05       	cpc	r25, r1
     e6e:	09 f0       	breq	.+2      	; 0xe72 <__stack+0xa13>
     e70:	ff c1       	rjmp	.+1022   	; 0x1270 <__stack+0xe11>
     e72:	10 92 63 00 	sts	0x0063, r1
     e76:	10 92 62 00 	sts	0x0062, r1
     e7a:	5d 9b       	sbis	0x0b, 5	; 11
     e7c:	fe cf       	rjmp	.-4      	; 0xe7a <__stack+0xa1b>
     e7e:	5c b9       	out	0x0c, r21	; 12
     e80:	5d 9b       	sbis	0x0b, 5	; 11
     e82:	fe cf       	rjmp	.-4      	; 0xe80 <__stack+0xa21>
     e84:	4c b9       	out	0x0c, r20	; 12
     e86:	5d 9b       	sbis	0x0b, 5	; 11
     e88:	fe cf       	rjmp	.-4      	; 0xe86 <__stack+0xa27>
     e8a:	fc b8       	out	0x0c, r15	; 12
     e8c:	5d 9b       	sbis	0x0b, 5	; 11
     e8e:	fe cf       	rjmp	.-4      	; 0xe8c <__stack+0xa2d>
     e90:	82 ea       	ldi	r24, 0xA2	; 162
     e92:	8c b9       	out	0x0c, r24	; 12
     e94:	5d 9b       	sbis	0x0b, 5	; 11
     e96:	fe cf       	rjmp	.-4      	; 0xe94 <__stack+0xa35>
     e98:	0c b9       	out	0x0c, r16	; 12
     e9a:	8c ed       	ldi	r24, 0xDC	; 220
     e9c:	95 e0       	ldi	r25, 0x05	; 5
     e9e:	f9 01       	movw	r30, r18
     ea0:	31 97       	sbiw	r30, 0x01	; 1
     ea2:	f1 f7       	brne	.-4      	; 0xea0 <__stack+0xa41>
     ea4:	01 97       	sbiw	r24, 0x01	; 1
     ea6:	d9 f7       	brne	.-10     	; 0xe9e <__stack+0xa3f>
     ea8:	5d 9b       	sbis	0x0b, 5	; 11
     eaa:	fe cf       	rjmp	.-4      	; 0xea8 <__stack+0xa49>
     eac:	5c b9       	out	0x0c, r21	; 12
     eae:	5d 9b       	sbis	0x0b, 5	; 11
     eb0:	fe cf       	rjmp	.-4      	; 0xeae <__stack+0xa4f>
     eb2:	4c b9       	out	0x0c, r20	; 12
     eb4:	5d 9b       	sbis	0x0b, 5	; 11
     eb6:	fe cf       	rjmp	.-4      	; 0xeb4 <__stack+0xa55>
     eb8:	7c b9       	out	0x0c, r23	; 12
     eba:	5d 9b       	sbis	0x0b, 5	; 11
     ebc:	fe cf       	rjmp	.-4      	; 0xeba <__stack+0xa5b>
     ebe:	ac b9       	out	0x0c, r26	; 12
     ec0:	5d 9b       	sbis	0x0b, 5	; 11
     ec2:	fe cf       	rjmp	.-4      	; 0xec0 <__stack+0xa61>
     ec4:	6c b9       	out	0x0c, r22	; 12
     ec6:	8c ed       	ldi	r24, 0xDC	; 220
     ec8:	95 e0       	ldi	r25, 0x05	; 5
     eca:	f9 01       	movw	r30, r18
     ecc:	31 97       	sbiw	r30, 0x01	; 1
     ece:	f1 f7       	brne	.-4      	; 0xecc <__stack+0xa6d>
     ed0:	01 97       	sbiw	r24, 0x01	; 1
     ed2:	d9 f7       	brne	.-10     	; 0xeca <__stack+0xa6b>
     ed4:	5d 9b       	sbis	0x0b, 5	; 11
     ed6:	fe cf       	rjmp	.-4      	; 0xed4 <__stack+0xa75>
     ed8:	5c b9       	out	0x0c, r21	; 12
     eda:	5d 9b       	sbis	0x0b, 5	; 11
     edc:	fe cf       	rjmp	.-4      	; 0xeda <__stack+0xa7b>
     ede:	4c b9       	out	0x0c, r20	; 12
     ee0:	5d 9b       	sbis	0x0b, 5	; 11
     ee2:	fe cf       	rjmp	.-4      	; 0xee0 <__stack+0xa81>
     ee4:	7c b9       	out	0x0c, r23	; 12
     ee6:	5d 9b       	sbis	0x0b, 5	; 11
     ee8:	fe cf       	rjmp	.-4      	; 0xee6 <__stack+0xa87>
     eea:	ac b9       	out	0x0c, r26	; 12
     eec:	5d 9b       	sbis	0x0b, 5	; 11
     eee:	fe cf       	rjmp	.-4      	; 0xeec <__stack+0xa8d>
     ef0:	6c b9       	out	0x0c, r22	; 12
     ef2:	8c ed       	ldi	r24, 0xDC	; 220
     ef4:	95 e0       	ldi	r25, 0x05	; 5
     ef6:	f9 01       	movw	r30, r18
     ef8:	31 97       	sbiw	r30, 0x01	; 1
     efa:	f1 f7       	brne	.-4      	; 0xef8 <__stack+0xa99>
     efc:	01 97       	sbiw	r24, 0x01	; 1
     efe:	d9 f7       	brne	.-10     	; 0xef6 <__stack+0xa97>
     f00:	5d 9b       	sbis	0x0b, 5	; 11
     f02:	fe cf       	rjmp	.-4      	; 0xf00 <__stack+0xaa1>
     f04:	5c b9       	out	0x0c, r21	; 12
     f06:	5d 9b       	sbis	0x0b, 5	; 11
     f08:	fe cf       	rjmp	.-4      	; 0xf06 <__stack+0xaa7>
     f0a:	4c b9       	out	0x0c, r20	; 12
     f0c:	5d 9b       	sbis	0x0b, 5	; 11
     f0e:	fe cf       	rjmp	.-4      	; 0xf0c <__stack+0xaad>
     f10:	7c b9       	out	0x0c, r23	; 12
     f12:	5d 9b       	sbis	0x0b, 5	; 11
     f14:	fe cf       	rjmp	.-4      	; 0xf12 <__stack+0xab3>
     f16:	ac b9       	out	0x0c, r26	; 12
     f18:	5d 9b       	sbis	0x0b, 5	; 11
     f1a:	fe cf       	rjmp	.-4      	; 0xf18 <__stack+0xab9>
     f1c:	6c b9       	out	0x0c, r22	; 12
     f1e:	8c ed       	ldi	r24, 0xDC	; 220
     f20:	95 e0       	ldi	r25, 0x05	; 5
     f22:	f9 01       	movw	r30, r18
     f24:	31 97       	sbiw	r30, 0x01	; 1
     f26:	f1 f7       	brne	.-4      	; 0xf24 <__stack+0xac5>
     f28:	01 97       	sbiw	r24, 0x01	; 1
     f2a:	d9 f7       	brne	.-10     	; 0xf22 <__stack+0xac3>
     f2c:	5d 9b       	sbis	0x0b, 5	; 11
     f2e:	fe cf       	rjmp	.-4      	; 0xf2c <__stack+0xacd>
     f30:	5c b9       	out	0x0c, r21	; 12
     f32:	5d 9b       	sbis	0x0b, 5	; 11
     f34:	fe cf       	rjmp	.-4      	; 0xf32 <__stack+0xad3>
     f36:	4c b9       	out	0x0c, r20	; 12
     f38:	5d 9b       	sbis	0x0b, 5	; 11
     f3a:	fe cf       	rjmp	.-4      	; 0xf38 <__stack+0xad9>
     f3c:	7c b9       	out	0x0c, r23	; 12
     f3e:	5d 9b       	sbis	0x0b, 5	; 11
     f40:	fe cf       	rjmp	.-4      	; 0xf3e <__stack+0xadf>
     f42:	ac b9       	out	0x0c, r26	; 12
     f44:	5d 9b       	sbis	0x0b, 5	; 11
     f46:	fe cf       	rjmp	.-4      	; 0xf44 <__stack+0xae5>
     f48:	6c b9       	out	0x0c, r22	; 12
     f4a:	8c ed       	ldi	r24, 0xDC	; 220
     f4c:	95 e0       	ldi	r25, 0x05	; 5
     f4e:	f9 01       	movw	r30, r18
     f50:	31 97       	sbiw	r30, 0x01	; 1
     f52:	f1 f7       	brne	.-4      	; 0xf50 <__stack+0xaf1>
     f54:	01 97       	sbiw	r24, 0x01	; 1
     f56:	d9 f7       	brne	.-10     	; 0xf4e <__stack+0xaef>
     f58:	5d 9b       	sbis	0x0b, 5	; 11
     f5a:	fe cf       	rjmp	.-4      	; 0xf58 <__stack+0xaf9>
     f5c:	5c b9       	out	0x0c, r21	; 12
     f5e:	5d 9b       	sbis	0x0b, 5	; 11
     f60:	fe cf       	rjmp	.-4      	; 0xf5e <__stack+0xaff>
     f62:	4c b9       	out	0x0c, r20	; 12
     f64:	5d 9b       	sbis	0x0b, 5	; 11
     f66:	fe cf       	rjmp	.-4      	; 0xf64 <__stack+0xb05>
     f68:	7c b9       	out	0x0c, r23	; 12
     f6a:	5d 9b       	sbis	0x0b, 5	; 11
     f6c:	fe cf       	rjmp	.-4      	; 0xf6a <__stack+0xb0b>
     f6e:	ac b9       	out	0x0c, r26	; 12
     f70:	5d 9b       	sbis	0x0b, 5	; 11
     f72:	fe cf       	rjmp	.-4      	; 0xf70 <__stack+0xb11>
     f74:	6c b9       	out	0x0c, r22	; 12
     f76:	8c ed       	ldi	r24, 0xDC	; 220
     f78:	95 e0       	ldi	r25, 0x05	; 5
     f7a:	f9 01       	movw	r30, r18
     f7c:	31 97       	sbiw	r30, 0x01	; 1
     f7e:	f1 f7       	brne	.-4      	; 0xf7c <__stack+0xb1d>
     f80:	01 97       	sbiw	r24, 0x01	; 1
     f82:	d9 f7       	brne	.-10     	; 0xf7a <__stack+0xb1b>
     f84:	5d 9b       	sbis	0x0b, 5	; 11
     f86:	fe cf       	rjmp	.-4      	; 0xf84 <__stack+0xb25>
     f88:	5c b9       	out	0x0c, r21	; 12
     f8a:	5d 9b       	sbis	0x0b, 5	; 11
     f8c:	fe cf       	rjmp	.-4      	; 0xf8a <__stack+0xb2b>
     f8e:	4c b9       	out	0x0c, r20	; 12
     f90:	5d 9b       	sbis	0x0b, 5	; 11
     f92:	fe cf       	rjmp	.-4      	; 0xf90 <__stack+0xb31>
     f94:	7c b9       	out	0x0c, r23	; 12
     f96:	5d 9b       	sbis	0x0b, 5	; 11
     f98:	fe cf       	rjmp	.-4      	; 0xf96 <__stack+0xb37>
     f9a:	ac b9       	out	0x0c, r26	; 12
     f9c:	5d 9b       	sbis	0x0b, 5	; 11
     f9e:	fe cf       	rjmp	.-4      	; 0xf9c <__stack+0xb3d>
     fa0:	6c b9       	out	0x0c, r22	; 12
     fa2:	8c ed       	ldi	r24, 0xDC	; 220
     fa4:	95 e0       	ldi	r25, 0x05	; 5
     fa6:	f9 01       	movw	r30, r18
     fa8:	31 97       	sbiw	r30, 0x01	; 1
     faa:	f1 f7       	brne	.-4      	; 0xfa8 <__stack+0xb49>
     fac:	01 97       	sbiw	r24, 0x01	; 1
     fae:	d9 f7       	brne	.-10     	; 0xfa6 <__stack+0xb47>
     fb0:	5d 9b       	sbis	0x0b, 5	; 11
     fb2:	fe cf       	rjmp	.-4      	; 0xfb0 <__stack+0xb51>
     fb4:	5c b9       	out	0x0c, r21	; 12
     fb6:	5d 9b       	sbis	0x0b, 5	; 11
     fb8:	fe cf       	rjmp	.-4      	; 0xfb6 <__stack+0xb57>
     fba:	4c b9       	out	0x0c, r20	; 12
     fbc:	5d 9b       	sbis	0x0b, 5	; 11
     fbe:	fe cf       	rjmp	.-4      	; 0xfbc <__stack+0xb5d>
     fc0:	7c b9       	out	0x0c, r23	; 12
     fc2:	5d 9b       	sbis	0x0b, 5	; 11
     fc4:	fe cf       	rjmp	.-4      	; 0xfc2 <__stack+0xb63>
     fc6:	ac b9       	out	0x0c, r26	; 12
     fc8:	5d 9b       	sbis	0x0b, 5	; 11
     fca:	fe cf       	rjmp	.-4      	; 0xfc8 <__stack+0xb69>
     fcc:	6c b9       	out	0x0c, r22	; 12
     fce:	8c ed       	ldi	r24, 0xDC	; 220
     fd0:	95 e0       	ldi	r25, 0x05	; 5
     fd2:	f9 01       	movw	r30, r18
     fd4:	31 97       	sbiw	r30, 0x01	; 1
     fd6:	f1 f7       	brne	.-4      	; 0xfd4 <__stack+0xb75>
     fd8:	01 97       	sbiw	r24, 0x01	; 1
     fda:	d9 f7       	brne	.-10     	; 0xfd2 <__stack+0xb73>
     fdc:	5d 9b       	sbis	0x0b, 5	; 11
     fde:	fe cf       	rjmp	.-4      	; 0xfdc <__stack+0xb7d>
     fe0:	5c b9       	out	0x0c, r21	; 12
     fe2:	5d 9b       	sbis	0x0b, 5	; 11
     fe4:	fe cf       	rjmp	.-4      	; 0xfe2 <__stack+0xb83>
     fe6:	4c b9       	out	0x0c, r20	; 12
     fe8:	5d 9b       	sbis	0x0b, 5	; 11
     fea:	fe cf       	rjmp	.-4      	; 0xfe8 <__stack+0xb89>
     fec:	7c b9       	out	0x0c, r23	; 12
     fee:	5d 9b       	sbis	0x0b, 5	; 11
     ff0:	fe cf       	rjmp	.-4      	; 0xfee <__stack+0xb8f>
     ff2:	ac b9       	out	0x0c, r26	; 12
     ff4:	5d 9b       	sbis	0x0b, 5	; 11
     ff6:	fe cf       	rjmp	.-4      	; 0xff4 <__stack+0xb95>
     ff8:	6c b9       	out	0x0c, r22	; 12
     ffa:	8c ed       	ldi	r24, 0xDC	; 220
     ffc:	95 e0       	ldi	r25, 0x05	; 5
     ffe:	f9 01       	movw	r30, r18
    1000:	31 97       	sbiw	r30, 0x01	; 1
    1002:	f1 f7       	brne	.-4      	; 0x1000 <__stack+0xba1>
    1004:	01 97       	sbiw	r24, 0x01	; 1
    1006:	d9 f7       	brne	.-10     	; 0xffe <__stack+0xb9f>
    1008:	5d 9b       	sbis	0x0b, 5	; 11
    100a:	fe cf       	rjmp	.-4      	; 0x1008 <__stack+0xba9>
    100c:	5c b9       	out	0x0c, r21	; 12
    100e:	5d 9b       	sbis	0x0b, 5	; 11
    1010:	fe cf       	rjmp	.-4      	; 0x100e <__stack+0xbaf>
    1012:	4c b9       	out	0x0c, r20	; 12
    1014:	5d 9b       	sbis	0x0b, 5	; 11
    1016:	fe cf       	rjmp	.-4      	; 0x1014 <__stack+0xbb5>
    1018:	7c b9       	out	0x0c, r23	; 12
    101a:	5d 9b       	sbis	0x0b, 5	; 11
    101c:	fe cf       	rjmp	.-4      	; 0x101a <__stack+0xbbb>
    101e:	ac b9       	out	0x0c, r26	; 12
    1020:	5d 9b       	sbis	0x0b, 5	; 11
    1022:	fe cf       	rjmp	.-4      	; 0x1020 <__stack+0xbc1>
    1024:	6c b9       	out	0x0c, r22	; 12
    1026:	8c ed       	ldi	r24, 0xDC	; 220
    1028:	95 e0       	ldi	r25, 0x05	; 5
    102a:	f9 01       	movw	r30, r18
    102c:	31 97       	sbiw	r30, 0x01	; 1
    102e:	f1 f7       	brne	.-4      	; 0x102c <__stack+0xbcd>
    1030:	01 97       	sbiw	r24, 0x01	; 1
    1032:	d9 f7       	brne	.-10     	; 0x102a <__stack+0xbcb>
    1034:	5d 9b       	sbis	0x0b, 5	; 11
    1036:	fe cf       	rjmp	.-4      	; 0x1034 <__stack+0xbd5>
    1038:	5c b9       	out	0x0c, r21	; 12
    103a:	5d 9b       	sbis	0x0b, 5	; 11
    103c:	fe cf       	rjmp	.-4      	; 0x103a <__stack+0xbdb>
    103e:	4c b9       	out	0x0c, r20	; 12
    1040:	5d 9b       	sbis	0x0b, 5	; 11
    1042:	fe cf       	rjmp	.-4      	; 0x1040 <__stack+0xbe1>
    1044:	7c b9       	out	0x0c, r23	; 12
    1046:	5d 9b       	sbis	0x0b, 5	; 11
    1048:	fe cf       	rjmp	.-4      	; 0x1046 <__stack+0xbe7>
    104a:	ac b9       	out	0x0c, r26	; 12
    104c:	5d 9b       	sbis	0x0b, 5	; 11
    104e:	fe cf       	rjmp	.-4      	; 0x104c <__stack+0xbed>
    1050:	6c b9       	out	0x0c, r22	; 12
    1052:	8c ed       	ldi	r24, 0xDC	; 220
    1054:	95 e0       	ldi	r25, 0x05	; 5
    1056:	f9 01       	movw	r30, r18
    1058:	31 97       	sbiw	r30, 0x01	; 1
    105a:	f1 f7       	brne	.-4      	; 0x1058 <__stack+0xbf9>
    105c:	01 97       	sbiw	r24, 0x01	; 1
    105e:	d9 f7       	brne	.-10     	; 0x1056 <__stack+0xbf7>
    1060:	5d 9b       	sbis	0x0b, 5	; 11
    1062:	fe cf       	rjmp	.-4      	; 0x1060 <__stack+0xc01>
    1064:	5c b9       	out	0x0c, r21	; 12
    1066:	5d 9b       	sbis	0x0b, 5	; 11
    1068:	fe cf       	rjmp	.-4      	; 0x1066 <__stack+0xc07>
    106a:	4c b9       	out	0x0c, r20	; 12
    106c:	5d 9b       	sbis	0x0b, 5	; 11
    106e:	fe cf       	rjmp	.-4      	; 0x106c <__stack+0xc0d>
    1070:	bc b9       	out	0x0c, r27	; 12
    1072:	5d 9b       	sbis	0x0b, 5	; 11
    1074:	fe cf       	rjmp	.-4      	; 0x1072 <__stack+0xc13>
    1076:	1c b9       	out	0x0c, r17	; 12
    1078:	5d 9b       	sbis	0x0b, 5	; 11
    107a:	fe cf       	rjmp	.-4      	; 0x1078 <__stack+0xc19>
    107c:	4c b9       	out	0x0c, r20	; 12
    107e:	8c ed       	ldi	r24, 0xDC	; 220
    1080:	95 e0       	ldi	r25, 0x05	; 5
    1082:	f9 01       	movw	r30, r18
    1084:	31 97       	sbiw	r30, 0x01	; 1
    1086:	f1 f7       	brne	.-4      	; 0x1084 <__stack+0xc25>
    1088:	01 97       	sbiw	r24, 0x01	; 1
    108a:	d9 f7       	brne	.-10     	; 0x1082 <__stack+0xc23>
    108c:	5d 9b       	sbis	0x0b, 5	; 11
    108e:	fe cf       	rjmp	.-4      	; 0x108c <__stack+0xc2d>
    1090:	5c b9       	out	0x0c, r21	; 12
    1092:	5d 9b       	sbis	0x0b, 5	; 11
    1094:	fe cf       	rjmp	.-4      	; 0x1092 <__stack+0xc33>
    1096:	4c b9       	out	0x0c, r20	; 12
    1098:	5d 9b       	sbis	0x0b, 5	; 11
    109a:	fe cf       	rjmp	.-4      	; 0x1098 <__stack+0xc39>
    109c:	7c b9       	out	0x0c, r23	; 12
    109e:	5d 9b       	sbis	0x0b, 5	; 11
    10a0:	fe cf       	rjmp	.-4      	; 0x109e <__stack+0xc3f>
    10a2:	ac b9       	out	0x0c, r26	; 12
    10a4:	5d 9b       	sbis	0x0b, 5	; 11
    10a6:	fe cf       	rjmp	.-4      	; 0x10a4 <__stack+0xc45>
    10a8:	6c b9       	out	0x0c, r22	; 12
    10aa:	ad 98       	cbi	0x15, 5	; 21
    10ac:	88 ee       	ldi	r24, 0xE8	; 232
    10ae:	93 e0       	ldi	r25, 0x03	; 3
    10b0:	f9 01       	movw	r30, r18
    10b2:	31 97       	sbiw	r30, 0x01	; 1
    10b4:	f1 f7       	brne	.-4      	; 0x10b2 <__stack+0xc53>
    10b6:	01 97       	sbiw	r24, 0x01	; 1
    10b8:	d9 f7       	brne	.-10     	; 0x10b0 <__stack+0xc51>
    10ba:	ad 9a       	sbi	0x15, 5	; 21
    10bc:	88 ee       	ldi	r24, 0xE8	; 232
    10be:	93 e0       	ldi	r25, 0x03	; 3
    10c0:	f9 01       	movw	r30, r18
    10c2:	31 97       	sbiw	r30, 0x01	; 1
    10c4:	f1 f7       	brne	.-4      	; 0x10c2 <__stack+0xc63>
    10c6:	01 97       	sbiw	r24, 0x01	; 1
    10c8:	d9 f7       	brne	.-10     	; 0x10c0 <__stack+0xc61>
    10ca:	ad 98       	cbi	0x15, 5	; 21
    10cc:	88 ee       	ldi	r24, 0xE8	; 232
    10ce:	93 e0       	ldi	r25, 0x03	; 3
    10d0:	f9 01       	movw	r30, r18
    10d2:	31 97       	sbiw	r30, 0x01	; 1
    10d4:	f1 f7       	brne	.-4      	; 0x10d2 <__stack+0xc73>
    10d6:	01 97       	sbiw	r24, 0x01	; 1
    10d8:	d9 f7       	brne	.-10     	; 0x10d0 <__stack+0xc71>
    10da:	ad 9a       	sbi	0x15, 5	; 21
    10dc:	88 ee       	ldi	r24, 0xE8	; 232
    10de:	93 e0       	ldi	r25, 0x03	; 3
    10e0:	f9 01       	movw	r30, r18
    10e2:	31 97       	sbiw	r30, 0x01	; 1
    10e4:	f1 f7       	brne	.-4      	; 0x10e2 <__stack+0xc83>
    10e6:	01 97       	sbiw	r24, 0x01	; 1
    10e8:	d9 f7       	brne	.-10     	; 0x10e0 <__stack+0xc81>
    10ea:	ad 98       	cbi	0x15, 5	; 21
    10ec:	88 ee       	ldi	r24, 0xE8	; 232
    10ee:	93 e0       	ldi	r25, 0x03	; 3
    10f0:	f9 01       	movw	r30, r18
    10f2:	31 97       	sbiw	r30, 0x01	; 1
    10f4:	f1 f7       	brne	.-4      	; 0x10f2 <__stack+0xc93>
    10f6:	01 97       	sbiw	r24, 0x01	; 1
    10f8:	d9 f7       	brne	.-10     	; 0x10f0 <__stack+0xc91>
    10fa:	ad 9a       	sbi	0x15, 5	; 21
    10fc:	88 ee       	ldi	r24, 0xE8	; 232
    10fe:	93 e0       	ldi	r25, 0x03	; 3
    1100:	f9 01       	movw	r30, r18
    1102:	31 97       	sbiw	r30, 0x01	; 1
    1104:	f1 f7       	brne	.-4      	; 0x1102 <__stack+0xca3>
    1106:	01 97       	sbiw	r24, 0x01	; 1
    1108:	d9 f7       	brne	.-10     	; 0x1100 <__stack+0xca1>
    110a:	ad 98       	cbi	0x15, 5	; 21
    110c:	88 ee       	ldi	r24, 0xE8	; 232
    110e:	93 e0       	ldi	r25, 0x03	; 3
    1110:	f9 01       	movw	r30, r18
    1112:	31 97       	sbiw	r30, 0x01	; 1
    1114:	f1 f7       	brne	.-4      	; 0x1112 <__stack+0xcb3>
    1116:	01 97       	sbiw	r24, 0x01	; 1
    1118:	d9 f7       	brne	.-10     	; 0x1110 <__stack+0xcb1>
    111a:	ad 9a       	sbi	0x15, 5	; 21
    111c:	88 ee       	ldi	r24, 0xE8	; 232
    111e:	93 e0       	ldi	r25, 0x03	; 3
    1120:	f9 01       	movw	r30, r18
    1122:	31 97       	sbiw	r30, 0x01	; 1
    1124:	f1 f7       	brne	.-4      	; 0x1122 <__stack+0xcc3>
    1126:	01 97       	sbiw	r24, 0x01	; 1
    1128:	d9 f7       	brne	.-10     	; 0x1120 <__stack+0xcc1>
    112a:	ad 98       	cbi	0x15, 5	; 21
    112c:	88 ee       	ldi	r24, 0xE8	; 232
    112e:	93 e0       	ldi	r25, 0x03	; 3
    1130:	f9 01       	movw	r30, r18
    1132:	31 97       	sbiw	r30, 0x01	; 1
    1134:	f1 f7       	brne	.-4      	; 0x1132 <__stack+0xcd3>
    1136:	01 97       	sbiw	r24, 0x01	; 1
    1138:	d9 f7       	brne	.-10     	; 0x1130 <__stack+0xcd1>
    113a:	ad 9a       	sbi	0x15, 5	; 21
    113c:	88 ee       	ldi	r24, 0xE8	; 232
    113e:	93 e0       	ldi	r25, 0x03	; 3
    1140:	f9 01       	movw	r30, r18
    1142:	31 97       	sbiw	r30, 0x01	; 1
    1144:	f1 f7       	brne	.-4      	; 0x1142 <__stack+0xce3>
    1146:	01 97       	sbiw	r24, 0x01	; 1
    1148:	d9 f7       	brne	.-10     	; 0x1140 <__stack+0xce1>
    114a:	ad 98       	cbi	0x15, 5	; 21
    114c:	88 ee       	ldi	r24, 0xE8	; 232
    114e:	93 e0       	ldi	r25, 0x03	; 3
    1150:	f9 01       	movw	r30, r18
    1152:	31 97       	sbiw	r30, 0x01	; 1
    1154:	f1 f7       	brne	.-4      	; 0x1152 <__stack+0xcf3>
    1156:	01 97       	sbiw	r24, 0x01	; 1
    1158:	d9 f7       	brne	.-10     	; 0x1150 <__stack+0xcf1>
    115a:	ad 9a       	sbi	0x15, 5	; 21
    115c:	88 ee       	ldi	r24, 0xE8	; 232
    115e:	93 e0       	ldi	r25, 0x03	; 3
    1160:	f9 01       	movw	r30, r18
    1162:	31 97       	sbiw	r30, 0x01	; 1
    1164:	f1 f7       	brne	.-4      	; 0x1162 <__stack+0xd03>
    1166:	01 97       	sbiw	r24, 0x01	; 1
    1168:	d9 f7       	brne	.-10     	; 0x1160 <__stack+0xd01>
    116a:	ad 98       	cbi	0x15, 5	; 21
    116c:	88 ee       	ldi	r24, 0xE8	; 232
    116e:	93 e0       	ldi	r25, 0x03	; 3
    1170:	f9 01       	movw	r30, r18
    1172:	31 97       	sbiw	r30, 0x01	; 1
    1174:	f1 f7       	brne	.-4      	; 0x1172 <__stack+0xd13>
    1176:	01 97       	sbiw	r24, 0x01	; 1
    1178:	d9 f7       	brne	.-10     	; 0x1170 <__stack+0xd11>
    117a:	ad 9a       	sbi	0x15, 5	; 21
    117c:	88 ee       	ldi	r24, 0xE8	; 232
    117e:	93 e0       	ldi	r25, 0x03	; 3
    1180:	f9 01       	movw	r30, r18
    1182:	31 97       	sbiw	r30, 0x01	; 1
    1184:	f1 f7       	brne	.-4      	; 0x1182 <__stack+0xd23>
    1186:	01 97       	sbiw	r24, 0x01	; 1
    1188:	d9 f7       	brne	.-10     	; 0x1180 <__stack+0xd21>
    118a:	ad 98       	cbi	0x15, 5	; 21
    118c:	88 ee       	ldi	r24, 0xE8	; 232
    118e:	93 e0       	ldi	r25, 0x03	; 3
    1190:	f9 01       	movw	r30, r18
    1192:	31 97       	sbiw	r30, 0x01	; 1
    1194:	f1 f7       	brne	.-4      	; 0x1192 <__stack+0xd33>
    1196:	01 97       	sbiw	r24, 0x01	; 1
    1198:	d9 f7       	brne	.-10     	; 0x1190 <__stack+0xd31>
    119a:	ad 9a       	sbi	0x15, 5	; 21
    119c:	88 ee       	ldi	r24, 0xE8	; 232
    119e:	93 e0       	ldi	r25, 0x03	; 3
    11a0:	f9 01       	movw	r30, r18
    11a2:	31 97       	sbiw	r30, 0x01	; 1
    11a4:	f1 f7       	brne	.-4      	; 0x11a2 <__stack+0xd43>
    11a6:	01 97       	sbiw	r24, 0x01	; 1
    11a8:	d9 f7       	brne	.-10     	; 0x11a0 <__stack+0xd41>
    11aa:	ad 98       	cbi	0x15, 5	; 21
    11ac:	88 ee       	ldi	r24, 0xE8	; 232
    11ae:	93 e0       	ldi	r25, 0x03	; 3
    11b0:	f9 01       	movw	r30, r18
    11b2:	31 97       	sbiw	r30, 0x01	; 1
    11b4:	f1 f7       	brne	.-4      	; 0x11b2 <__stack+0xd53>
    11b6:	01 97       	sbiw	r24, 0x01	; 1
    11b8:	d9 f7       	brne	.-10     	; 0x11b0 <__stack+0xd51>
    11ba:	ad 9a       	sbi	0x15, 5	; 21
    11bc:	88 ee       	ldi	r24, 0xE8	; 232
    11be:	93 e0       	ldi	r25, 0x03	; 3
    11c0:	f9 01       	movw	r30, r18
    11c2:	31 97       	sbiw	r30, 0x01	; 1
    11c4:	f1 f7       	brne	.-4      	; 0x11c2 <__stack+0xd63>
    11c6:	01 97       	sbiw	r24, 0x01	; 1
    11c8:	d9 f7       	brne	.-10     	; 0x11c0 <__stack+0xd61>
    11ca:	ad 98       	cbi	0x15, 5	; 21
    11cc:	88 ee       	ldi	r24, 0xE8	; 232
    11ce:	93 e0       	ldi	r25, 0x03	; 3
    11d0:	f9 01       	movw	r30, r18
    11d2:	31 97       	sbiw	r30, 0x01	; 1
    11d4:	f1 f7       	brne	.-4      	; 0x11d2 <__stack+0xd73>
    11d6:	01 97       	sbiw	r24, 0x01	; 1
    11d8:	d9 f7       	brne	.-10     	; 0x11d0 <__stack+0xd71>
    11da:	ad 9a       	sbi	0x15, 5	; 21
    11dc:	81 e0       	ldi	r24, 0x01	; 1
    11de:	90 e0       	ldi	r25, 0x00	; 0
    11e0:	90 93 63 00 	sts	0x0063, r25
    11e4:	80 93 62 00 	sts	0x0062, r24
    11e8:	5d 9b       	sbis	0x0b, 5	; 11
    11ea:	fe cf       	rjmp	.-4      	; 0x11e8 <__stack+0xd89>
    11ec:	5c b9       	out	0x0c, r21	; 12
    11ee:	5d 9b       	sbis	0x0b, 5	; 11
    11f0:	fe cf       	rjmp	.-4      	; 0x11ee <__stack+0xd8f>
    11f2:	4c b9       	out	0x0c, r20	; 12
    11f4:	5d 9b       	sbis	0x0b, 5	; 11
    11f6:	fe cf       	rjmp	.-4      	; 0x11f4 <__stack+0xd95>
    11f8:	bc b9       	out	0x0c, r27	; 12
    11fa:	5d 9b       	sbis	0x0b, 5	; 11
    11fc:	fe cf       	rjmp	.-4      	; 0x11fa <__stack+0xd9b>
    11fe:	1c b9       	out	0x0c, r17	; 12
    1200:	5d 9b       	sbis	0x0b, 5	; 11
    1202:	fe cf       	rjmp	.-4      	; 0x1200 <__stack+0xda1>
    1204:	4c b9       	out	0x0c, r20	; 12
    1206:	8c ed       	ldi	r24, 0xDC	; 220
    1208:	95 e0       	ldi	r25, 0x05	; 5
    120a:	f9 01       	movw	r30, r18
    120c:	31 97       	sbiw	r30, 0x01	; 1
    120e:	f1 f7       	brne	.-4      	; 0x120c <__stack+0xdad>
    1210:	01 97       	sbiw	r24, 0x01	; 1
    1212:	d9 f7       	brne	.-10     	; 0x120a <__stack+0xdab>
    1214:	5d 9b       	sbis	0x0b, 5	; 11
    1216:	fe cf       	rjmp	.-4      	; 0x1214 <__stack+0xdb5>
    1218:	5c b9       	out	0x0c, r21	; 12
    121a:	5d 9b       	sbis	0x0b, 5	; 11
    121c:	fe cf       	rjmp	.-4      	; 0x121a <__stack+0xdbb>
    121e:	4c b9       	out	0x0c, r20	; 12
    1220:	5d 9b       	sbis	0x0b, 5	; 11
    1222:	fe cf       	rjmp	.-4      	; 0x1220 <__stack+0xdc1>
    1224:	7c b9       	out	0x0c, r23	; 12
    1226:	5d 9b       	sbis	0x0b, 5	; 11
    1228:	fe cf       	rjmp	.-4      	; 0x1226 <__stack+0xdc7>
    122a:	ac b9       	out	0x0c, r26	; 12
    122c:	5d 9b       	sbis	0x0b, 5	; 11
    122e:	fe cf       	rjmp	.-4      	; 0x122c <__stack+0xdcd>
    1230:	6c b9       	out	0x0c, r22	; 12
    1232:	8c ed       	ldi	r24, 0xDC	; 220
    1234:	95 e0       	ldi	r25, 0x05	; 5
    1236:	f9 01       	movw	r30, r18
    1238:	31 97       	sbiw	r30, 0x01	; 1
    123a:	f1 f7       	brne	.-4      	; 0x1238 <__stack+0xdd9>
    123c:	01 97       	sbiw	r24, 0x01	; 1
    123e:	d9 f7       	brne	.-10     	; 0x1236 <__stack+0xdd7>
    1240:	5f 9b       	sbis	0x0b, 7	; 11
    1242:	fe cf       	rjmp	.-4      	; 0x1240 <__stack+0xde1>
    1244:	8c b1       	in	r24, 0x0c	; 12
    1246:	90 e0       	ldi	r25, 0x00	; 0
    1248:	90 93 63 00 	sts	0x0063, r25
    124c:	80 93 62 00 	sts	0x0062, r24
    1250:	5f 9b       	sbis	0x0b, 7	; 11
    1252:	fe cf       	rjmp	.-4      	; 0x1250 <__stack+0xdf1>
    1254:	8c b1       	in	r24, 0x0c	; 12
    1256:	90 e0       	ldi	r25, 0x00	; 0
    1258:	90 93 63 00 	sts	0x0063, r25
    125c:	80 93 62 00 	sts	0x0062, r24
    1260:	5f 9b       	sbis	0x0b, 7	; 11
    1262:	fe cf       	rjmp	.-4      	; 0x1260 <__stack+0xe01>
    1264:	8c b1       	in	r24, 0x0c	; 12
    1266:	90 e0       	ldi	r25, 0x00	; 0
    1268:	90 93 63 00 	sts	0x0063, r25
    126c:	80 93 62 00 	sts	0x0062, r24
    1270:	80 91 62 00 	lds	r24, 0x0062
    1274:	90 91 63 00 	lds	r25, 0x0063
    1278:	40 97       	sbiw	r24, 0x10	; 16
    127a:	09 f0       	breq	.+2      	; 0x127e <__stack+0xe1f>
    127c:	46 c8       	rjmp	.-3956   	; 0x30a <main+0x288>
    127e:	5d 9b       	sbis	0x0b, 5	; 11
    1280:	fe cf       	rjmp	.-4      	; 0x127e <__stack+0xe1f>
    1282:	5c b9       	out	0x0c, r21	; 12
    1284:	5d 9b       	sbis	0x0b, 5	; 11
    1286:	fe cf       	rjmp	.-4      	; 0x1284 <__stack+0xe25>
    1288:	4c b9       	out	0x0c, r20	; 12
    128a:	5d 9b       	sbis	0x0b, 5	; 11
    128c:	fe cf       	rjmp	.-4      	; 0x128a <__stack+0xe2b>
    128e:	bc b9       	out	0x0c, r27	; 12
    1290:	5d 9b       	sbis	0x0b, 5	; 11
    1292:	fe cf       	rjmp	.-4      	; 0x1290 <__stack+0xe31>
    1294:	1c b9       	out	0x0c, r17	; 12
    1296:	5d 9b       	sbis	0x0b, 5	; 11
    1298:	fe cf       	rjmp	.-4      	; 0x1296 <__stack+0xe37>
    129a:	4c b9       	out	0x0c, r20	; 12
    129c:	8c ed       	ldi	r24, 0xDC	; 220
    129e:	95 e0       	ldi	r25, 0x05	; 5
    12a0:	f9 01       	movw	r30, r18
    12a2:	31 97       	sbiw	r30, 0x01	; 1
    12a4:	f1 f7       	brne	.-4      	; 0x12a2 <__stack+0xe43>
    12a6:	01 97       	sbiw	r24, 0x01	; 1
    12a8:	d9 f7       	brne	.-10     	; 0x12a0 <__stack+0xe41>
    12aa:	5d 9b       	sbis	0x0b, 5	; 11
    12ac:	fe cf       	rjmp	.-4      	; 0x12aa <__stack+0xe4b>
    12ae:	5c b9       	out	0x0c, r21	; 12
    12b0:	5d 9b       	sbis	0x0b, 5	; 11
    12b2:	fe cf       	rjmp	.-4      	; 0x12b0 <__stack+0xe51>
    12b4:	4c b9       	out	0x0c, r20	; 12
    12b6:	5d 9b       	sbis	0x0b, 5	; 11
    12b8:	fe cf       	rjmp	.-4      	; 0x12b6 <__stack+0xe57>
    12ba:	7c b9       	out	0x0c, r23	; 12
    12bc:	5d 9b       	sbis	0x0b, 5	; 11
    12be:	fe cf       	rjmp	.-4      	; 0x12bc <__stack+0xe5d>
    12c0:	ac b9       	out	0x0c, r26	; 12
    12c2:	5d 9b       	sbis	0x0b, 5	; 11
    12c4:	fe cf       	rjmp	.-4      	; 0x12c2 <__stack+0xe63>
    12c6:	6c b9       	out	0x0c, r22	; 12
    12c8:	8c ed       	ldi	r24, 0xDC	; 220
    12ca:	95 e0       	ldi	r25, 0x05	; 5
    12cc:	f9 01       	movw	r30, r18
    12ce:	31 97       	sbiw	r30, 0x01	; 1
    12d0:	f1 f7       	brne	.-4      	; 0x12ce <__stack+0xe6f>
    12d2:	01 97       	sbiw	r24, 0x01	; 1
    12d4:	d9 f7       	brne	.-10     	; 0x12cc <__stack+0xe6d>
    12d6:	5f 9b       	sbis	0x0b, 7	; 11
    12d8:	fe cf       	rjmp	.-4      	; 0x12d6 <__stack+0xe77>
    12da:	8c b1       	in	r24, 0x0c	; 12
    12dc:	90 e0       	ldi	r25, 0x00	; 0
    12de:	90 93 63 00 	sts	0x0063, r25
    12e2:	80 93 62 00 	sts	0x0062, r24
    12e6:	5f 9b       	sbis	0x0b, 7	; 11
    12e8:	fe cf       	rjmp	.-4      	; 0x12e6 <__stack+0xe87>
    12ea:	8c b1       	in	r24, 0x0c	; 12
    12ec:	90 e0       	ldi	r25, 0x00	; 0
    12ee:	90 93 63 00 	sts	0x0063, r25
    12f2:	80 93 62 00 	sts	0x0062, r24
    12f6:	5f 9b       	sbis	0x0b, 7	; 11
    12f8:	fe cf       	rjmp	.-4      	; 0x12f6 <__stack+0xe97>
    12fa:	8c b1       	in	r24, 0x0c	; 12
    12fc:	90 e0       	ldi	r25, 0x00	; 0
    12fe:	90 93 63 00 	sts	0x0063, r25
    1302:	80 93 62 00 	sts	0x0062, r24
    1306:	01 c8       	rjmp	.-4094   	; 0x30a <main+0x288>

00001308 <_exit>:
    1308:	f8 94       	cli

0000130a <__stop_program>:
    130a:	ff cf       	rjmp	.-2      	; 0x130a <__stop_program>
