
034_apollo_NRI_Emulacja_NRI_PulsToccTalk.elf:     file format elf32-avr

Sections:
Idx Name          Size      VMA       LMA       File off  Algn
  0 .text         00000e2c  00000000  00000000  00000094  2**1
                  CONTENTS, ALLOC, LOAD, READONLY, CODE
  1 .data         0000006c  00800060  00000e2c  00000ec0  2**0
                  CONTENTS, ALLOC, LOAD, DATA
  2 .bss          00000035  008000cc  008000cc  00000f2c  2**0
                  ALLOC

Disassembly of section .text:

00000000 <__vectors>:
   0:	12 c0       	rjmp	.+36     	; 0x26 <__ctors_end>
   2:	2c c0       	rjmp	.+88     	; 0x5c <__bad_interrupt>
   4:	2b c0       	rjmp	.+86     	; 0x5c <__bad_interrupt>
   6:	2a c0       	rjmp	.+84     	; 0x5c <__bad_interrupt>
   8:	29 c0       	rjmp	.+82     	; 0x5c <__bad_interrupt>
   a:	28 c0       	rjmp	.+80     	; 0x5c <__bad_interrupt>
   c:	27 c0       	rjmp	.+78     	; 0x5c <__bad_interrupt>
   e:	26 c0       	rjmp	.+76     	; 0x5c <__bad_interrupt>
  10:	25 c0       	rjmp	.+74     	; 0x5c <__bad_interrupt>
  12:	24 c0       	rjmp	.+72     	; 0x5c <__bad_interrupt>
  14:	23 c0       	rjmp	.+70     	; 0x5c <__bad_interrupt>
  16:	22 c0       	rjmp	.+68     	; 0x5c <__bad_interrupt>
  18:	21 c0       	rjmp	.+66     	; 0x5c <__bad_interrupt>
  1a:	20 c0       	rjmp	.+64     	; 0x5c <__bad_interrupt>
  1c:	1f c0       	rjmp	.+62     	; 0x5c <__bad_interrupt>
  1e:	1e c0       	rjmp	.+60     	; 0x5c <__bad_interrupt>
  20:	1d c0       	rjmp	.+58     	; 0x5c <__bad_interrupt>
  22:	1c c0       	rjmp	.+56     	; 0x5c <__bad_interrupt>
  24:	1b c0       	rjmp	.+54     	; 0x5c <__bad_interrupt>

00000026 <__ctors_end>:
  26:	11 24       	eor	r1, r1
  28:	1f be       	out	0x3f, r1	; 63
  2a:	cf e5       	ldi	r28, 0x5F	; 95
  2c:	d4 e0       	ldi	r29, 0x04	; 4
  2e:	de bf       	out	0x3e, r29	; 62
  30:	cd bf       	out	0x3d, r28	; 61

00000032 <__do_copy_data>:
  32:	10 e0       	ldi	r17, 0x00	; 0
  34:	a0 e6       	ldi	r26, 0x60	; 96
  36:	b0 e0       	ldi	r27, 0x00	; 0
  38:	ec e2       	ldi	r30, 0x2C	; 44
  3a:	fe e0       	ldi	r31, 0x0E	; 14
  3c:	02 c0       	rjmp	.+4      	; 0x42 <.do_copy_data_start>

0000003e <.do_copy_data_loop>:
  3e:	05 90       	lpm	r0, Z+
  40:	0d 92       	st	X+, r0

00000042 <.do_copy_data_start>:
  42:	ac 3c       	cpi	r26, 0xCC	; 204
  44:	b1 07       	cpc	r27, r17
  46:	d9 f7       	brne	.-10     	; 0x3e <.do_copy_data_loop>

00000048 <__do_clear_bss>:
  48:	11 e0       	ldi	r17, 0x01	; 1
  4a:	ac ec       	ldi	r26, 0xCC	; 204
  4c:	b0 e0       	ldi	r27, 0x00	; 0
  4e:	01 c0       	rjmp	.+2      	; 0x52 <.do_clear_bss_start>

00000050 <.do_clear_bss_loop>:
  50:	1d 92       	st	X+, r1

00000052 <.do_clear_bss_start>:
  52:	a1 30       	cpi	r26, 0x01	; 1
  54:	b1 07       	cpc	r27, r17
  56:	e1 f7       	brne	.-8      	; 0x50 <.do_clear_bss_loop>
  58:	54 d3       	rcall	.+1704   	; 0x702 <main>
  5a:	e6 c6       	rjmp	.+3532   	; 0xe28 <_exit>

0000005c <__bad_interrupt>:
  5c:	d1 cf       	rjmp	.-94     	; 0x0 <__vectors>

0000005e <uart_clear>:
  5e:	01 c0       	rjmp	.+2      	; 0x62 <uart_clear+0x4>
  60:	8c b1       	in	r24, 0x0c	; 12
  62:	5f 99       	sbic	0x0b, 7	; 11
  64:	fd cf       	rjmp	.-6      	; 0x60 <uart_clear+0x2>
  66:	08 95       	ret

00000068 <check_money>:
  68:	80 91 cc 00 	lds	r24, 0x00CC
  6c:	88 23       	and	r24, r24
  6e:	81 f1       	breq	.+96     	; 0xd0 <check_money+0x68>
  70:	80 91 cc 00 	lds	r24, 0x00CC
  74:	81 50       	subi	r24, 0x01	; 1
  76:	80 93 cc 00 	sts	0x00CC, r24
  7a:	80 91 ce 00 	lds	r24, 0x00CE
  7e:	8f 5f       	subi	r24, 0xFF	; 255
  80:	80 93 ce 00 	sts	0x00CE, r24
  84:	86 e0       	ldi	r24, 0x06	; 6
  86:	80 93 cf 00 	sts	0x00CF, r24
  8a:	81 e0       	ldi	r24, 0x01	; 1
  8c:	80 93 d0 00 	sts	0x00D0, r24
  90:	80 91 cf 00 	lds	r24, 0x00CF
  94:	80 93 d1 00 	sts	0x00D1, r24
  98:	80 91 d0 00 	lds	r24, 0x00D0
  9c:	80 93 d2 00 	sts	0x00D2, r24
  a0:	80 91 d1 00 	lds	r24, 0x00D1
  a4:	80 93 d3 00 	sts	0x00D3, r24
  a8:	80 91 d2 00 	lds	r24, 0x00D2
  ac:	80 93 d4 00 	sts	0x00D4, r24
  b0:	80 91 d3 00 	lds	r24, 0x00D3
  b4:	80 93 d5 00 	sts	0x00D5, r24
  b8:	80 91 d4 00 	lds	r24, 0x00D4
  bc:	80 93 d6 00 	sts	0x00D6, r24
  c0:	80 91 d5 00 	lds	r24, 0x00D5
  c4:	80 93 d7 00 	sts	0x00D7, r24
  c8:	80 91 d6 00 	lds	r24, 0x00D6
  cc:	80 93 d8 00 	sts	0x00D8, r24
  d0:	08 95       	ret

000000d2 <send_command>:
  d2:	78 2f       	mov	r23, r24
  d4:	5d 9b       	sbis	0x0b, 5	; 11
  d6:	fe cf       	rjmp	.-4      	; 0xd4 <send_command+0x2>
  d8:	81 e0       	ldi	r24, 0x01	; 1
  da:	8c b9       	out	0x0c, r24	; 12
  dc:	5d 9b       	sbis	0x0b, 5	; 11
  de:	fe cf       	rjmp	.-4      	; 0xdc <send_command+0xa>
  e0:	7c b9       	out	0x0c, r23	; 12
  e2:	5d 9b       	sbis	0x0b, 5	; 11
  e4:	fe cf       	rjmp	.-4      	; 0xe2 <send_command+0x10>
  e6:	82 e0       	ldi	r24, 0x02	; 2
  e8:	8c b9       	out	0x0c, r24	; 12
  ea:	5d 9b       	sbis	0x0b, 5	; 11
  ec:	fe cf       	rjmp	.-4      	; 0xea <send_command+0x18>
  ee:	6c b9       	out	0x0c, r22	; 12
  f0:	fa 01       	movw	r30, r20
  f2:	20 e0       	ldi	r18, 0x00	; 0
  f4:	90 e0       	ldi	r25, 0x00	; 0
  f6:	07 c0       	rjmp	.+14     	; 0x106 <send_command+0x34>
  f8:	80 81       	ld	r24, Z
  fa:	5d 9b       	sbis	0x0b, 5	; 11
  fc:	fe cf       	rjmp	.-4      	; 0xfa <send_command+0x28>
  fe:	8c b9       	out	0x0c, r24	; 12
 100:	28 0f       	add	r18, r24
 102:	9f 5f       	subi	r25, 0xFF	; 255
 104:	31 96       	adiw	r30, 0x01	; 1
 106:	97 17       	cp	r25, r23
 108:	b8 f3       	brcs	.-18     	; 0xf8 <send_command+0x26>
 10a:	5d 9b       	sbis	0x0b, 5	; 11
 10c:	fe cf       	rjmp	.-4      	; 0x10a <send_command+0x38>
 10e:	7d 5f       	subi	r23, 0xFD	; 253
 110:	76 0f       	add	r23, r22
 112:	72 0f       	add	r23, r18
 114:	71 95       	neg	r23
 116:	7c b9       	out	0x0c, r23	; 12
 118:	08 95       	ret

0000011a <Set_inhibit>:
 11a:	80 91 60 00 	lds	r24, 0x0060
 11e:	81 30       	cpi	r24, 0x01	; 1
 120:	11 f4       	brne	.+4      	; 0x126 <Set_inhibit+0xc>
 122:	93 9a       	sbi	0x12, 3	; 18
 124:	08 95       	ret
 126:	93 98       	cbi	0x12, 3	; 18
 128:	08 95       	ret

0000012a <check_is_money>:
 12a:	f7 df       	rcall	.-18     	; 0x11a <Set_inhibit>
 12c:	b2 9b       	sbis	0x16, 2	; 22
 12e:	03 c0       	rjmp	.+6      	; 0x136 <check_is_money+0xc>
 130:	81 e0       	ldi	r24, 0x01	; 1
 132:	80 93 cd 00 	sts	0x00CD, r24
 136:	b2 99       	sbic	0x16, 2	; 22
 138:	10 c0       	rjmp	.+32     	; 0x15a <check_is_money+0x30>
 13a:	80 91 cd 00 	lds	r24, 0x00CD
 13e:	88 23       	and	r24, r24
 140:	61 f0       	breq	.+24     	; 0x15a <check_is_money+0x30>
 142:	8d e0       	ldi	r24, 0x0D	; 13
 144:	8a 95       	dec	r24
 146:	f1 f7       	brne	.-4      	; 0x144 <check_is_money+0x1a>
 148:	b2 99       	sbic	0x16, 2	; 22
 14a:	07 c0       	rjmp	.+14     	; 0x15a <check_is_money+0x30>
 14c:	80 91 cc 00 	lds	r24, 0x00CC
 150:	8f 5f       	subi	r24, 0xFF	; 255
 152:	80 93 cc 00 	sts	0x00CC, r24
 156:	10 92 cd 00 	sts	0x00CD, r1
 15a:	b2 9b       	sbis	0x16, 2	; 22
 15c:	03 c0       	rjmp	.+6      	; 0x164 <check_is_money+0x3a>
 15e:	81 e0       	ldi	r24, 0x01	; 1
 160:	80 93 cd 00 	sts	0x00CD, r24
 164:	81 df       	rcall	.-254    	; 0x68 <check_money>
 166:	08 95       	ret

00000168 <Read_buffor_credit_ans>:
 168:	df 93       	push	r29
 16a:	cf 93       	push	r28
 16c:	cd b7       	in	r28, 0x3d	; 61
 16e:	de b7       	in	r29, 0x3e	; 62
 170:	2b 97       	sbiw	r28, 0x0b	; 11
 172:	0f b6       	in	r0, 0x3f	; 63
 174:	f8 94       	cli
 176:	de bf       	out	0x3e, r29	; 62
 178:	0f be       	out	0x3f, r0	; 63
 17a:	cd bf       	out	0x3d, r28	; 61
 17c:	80 91 ce 00 	lds	r24, 0x00CE
 180:	90 91 cf 00 	lds	r25, 0x00CF
 184:	20 91 d0 00 	lds	r18, 0x00D0
 188:	30 91 d1 00 	lds	r19, 0x00D1
 18c:	40 91 d2 00 	lds	r20, 0x00D2
 190:	50 91 d3 00 	lds	r21, 0x00D3
 194:	60 91 d4 00 	lds	r22, 0x00D4
 198:	70 91 d5 00 	lds	r23, 0x00D5
 19c:	e0 91 d6 00 	lds	r30, 0x00D6
 1a0:	f0 91 d7 00 	lds	r31, 0x00D7
 1a4:	a0 91 d8 00 	lds	r26, 0x00D8
 1a8:	89 83       	std	Y+1, r24	; 0x01
 1aa:	9a 83       	std	Y+2, r25	; 0x02
 1ac:	2b 83       	std	Y+3, r18	; 0x03
 1ae:	3c 83       	std	Y+4, r19	; 0x04
 1b0:	4d 83       	std	Y+5, r20	; 0x05
 1b2:	5e 83       	std	Y+6, r21	; 0x06
 1b4:	6f 83       	std	Y+7, r22	; 0x07
 1b6:	78 87       	std	Y+8, r23	; 0x08
 1b8:	e9 87       	std	Y+9, r30	; 0x09
 1ba:	fa 87       	std	Y+10, r31	; 0x0a
 1bc:	ab 87       	std	Y+11, r26	; 0x0b
 1be:	8b e0       	ldi	r24, 0x0B	; 11
 1c0:	60 e0       	ldi	r22, 0x00	; 0
 1c2:	ae 01       	movw	r20, r28
 1c4:	4f 5f       	subi	r20, 0xFF	; 255
 1c6:	5f 4f       	sbci	r21, 0xFF	; 255
 1c8:	84 df       	rcall	.-248    	; 0xd2 <send_command>
 1ca:	af df       	rcall	.-162    	; 0x12a <check_is_money>
 1cc:	2b 96       	adiw	r28, 0x0b	; 11
 1ce:	0f b6       	in	r0, 0x3f	; 63
 1d0:	f8 94       	cli
 1d2:	de bf       	out	0x3e, r29	; 62
 1d4:	0f be       	out	0x3f, r0	; 63
 1d6:	cd bf       	out	0x3d, r28	; 61
 1d8:	cf 91       	pop	r28
 1da:	df 91       	pop	r29
 1dc:	08 95       	ret

000001de <Request_coin_id_ans_v16>:
 1de:	df 93       	push	r29
 1e0:	cf 93       	push	r28
 1e2:	00 d0       	rcall	.+0      	; 0x1e4 <Request_coin_id_ans_v16+0x6>
 1e4:	00 d0       	rcall	.+0      	; 0x1e6 <Request_coin_id_ans_v16+0x8>
 1e6:	00 d0       	rcall	.+0      	; 0x1e8 <Request_coin_id_ans_v16+0xa>
 1e8:	cd b7       	in	r28, 0x3d	; 61
 1ea:	de b7       	in	r29, 0x3e	; 62
 1ec:	de 01       	movw	r26, r28
 1ee:	11 96       	adiw	r26, 0x01	; 1
 1f0:	e1 e6       	ldi	r30, 0x61	; 97
 1f2:	f0 e0       	ldi	r31, 0x00	; 0
 1f4:	86 e0       	ldi	r24, 0x06	; 6
 1f6:	01 90       	ld	r0, Z+
 1f8:	0d 92       	st	X+, r0
 1fa:	81 50       	subi	r24, 0x01	; 1
 1fc:	e1 f7       	brne	.-8      	; 0x1f6 <Request_coin_id_ans_v16+0x18>
 1fe:	86 e0       	ldi	r24, 0x06	; 6
 200:	60 e0       	ldi	r22, 0x00	; 0
 202:	ae 01       	movw	r20, r28
 204:	4f 5f       	subi	r20, 0xFF	; 255
 206:	5f 4f       	sbci	r21, 0xFF	; 255
 208:	64 df       	rcall	.-312    	; 0xd2 <send_command>
 20a:	8f df       	rcall	.-226    	; 0x12a <check_is_money>
 20c:	26 96       	adiw	r28, 0x06	; 6
 20e:	0f b6       	in	r0, 0x3f	; 63
 210:	f8 94       	cli
 212:	de bf       	out	0x3e, r29	; 62
 214:	0f be       	out	0x3f, r0	; 63
 216:	cd bf       	out	0x3d, r28	; 61
 218:	cf 91       	pop	r28
 21a:	df 91       	pop	r29
 21c:	08 95       	ret

0000021e <Request_coin_id_ans_v15>:
 21e:	df 93       	push	r29
 220:	cf 93       	push	r28
 222:	00 d0       	rcall	.+0      	; 0x224 <Request_coin_id_ans_v15+0x6>
 224:	00 d0       	rcall	.+0      	; 0x226 <Request_coin_id_ans_v15+0x8>
 226:	00 d0       	rcall	.+0      	; 0x228 <Request_coin_id_ans_v15+0xa>
 228:	cd b7       	in	r28, 0x3d	; 61
 22a:	de b7       	in	r29, 0x3e	; 62
 22c:	de 01       	movw	r26, r28
 22e:	11 96       	adiw	r26, 0x01	; 1
 230:	e7 e6       	ldi	r30, 0x67	; 103
 232:	f0 e0       	ldi	r31, 0x00	; 0
 234:	86 e0       	ldi	r24, 0x06	; 6
 236:	01 90       	ld	r0, Z+
 238:	0d 92       	st	X+, r0
 23a:	81 50       	subi	r24, 0x01	; 1
 23c:	e1 f7       	brne	.-8      	; 0x236 <Request_coin_id_ans_v15+0x18>
 23e:	86 e0       	ldi	r24, 0x06	; 6
 240:	60 e0       	ldi	r22, 0x00	; 0
 242:	ae 01       	movw	r20, r28
 244:	4f 5f       	subi	r20, 0xFF	; 255
 246:	5f 4f       	sbci	r21, 0xFF	; 255
 248:	44 df       	rcall	.-376    	; 0xd2 <send_command>
 24a:	6f df       	rcall	.-290    	; 0x12a <check_is_money>
 24c:	26 96       	adiw	r28, 0x06	; 6
 24e:	0f b6       	in	r0, 0x3f	; 63
 250:	f8 94       	cli
 252:	de bf       	out	0x3e, r29	; 62
 254:	0f be       	out	0x3f, r0	; 63
 256:	cd bf       	out	0x3d, r28	; 61
 258:	cf 91       	pop	r28
 25a:	df 91       	pop	r29
 25c:	08 95       	ret

0000025e <Request_coin_id_ans_v14>:
 25e:	df 93       	push	r29
 260:	cf 93       	push	r28
 262:	00 d0       	rcall	.+0      	; 0x264 <Request_coin_id_ans_v14+0x6>
 264:	00 d0       	rcall	.+0      	; 0x266 <Request_coin_id_ans_v14+0x8>
 266:	00 d0       	rcall	.+0      	; 0x268 <Request_coin_id_ans_v14+0xa>
 268:	cd b7       	in	r28, 0x3d	; 61
 26a:	de b7       	in	r29, 0x3e	; 62
 26c:	de 01       	movw	r26, r28
 26e:	11 96       	adiw	r26, 0x01	; 1
 270:	ed e6       	ldi	r30, 0x6D	; 109
 272:	f0 e0       	ldi	r31, 0x00	; 0
 274:	86 e0       	ldi	r24, 0x06	; 6
 276:	01 90       	ld	r0, Z+
 278:	0d 92       	st	X+, r0
 27a:	81 50       	subi	r24, 0x01	; 1
 27c:	e1 f7       	brne	.-8      	; 0x276 <Request_coin_id_ans_v14+0x18>
 27e:	86 e0       	ldi	r24, 0x06	; 6
 280:	60 e0       	ldi	r22, 0x00	; 0
 282:	ae 01       	movw	r20, r28
 284:	4f 5f       	subi	r20, 0xFF	; 255
 286:	5f 4f       	sbci	r21, 0xFF	; 255
 288:	24 df       	rcall	.-440    	; 0xd2 <send_command>
 28a:	4f df       	rcall	.-354    	; 0x12a <check_is_money>
 28c:	26 96       	adiw	r28, 0x06	; 6
 28e:	0f b6       	in	r0, 0x3f	; 63
 290:	f8 94       	cli
 292:	de bf       	out	0x3e, r29	; 62
 294:	0f be       	out	0x3f, r0	; 63
 296:	cd bf       	out	0x3d, r28	; 61
 298:	cf 91       	pop	r28
 29a:	df 91       	pop	r29
 29c:	08 95       	ret

0000029e <Request_coin_id_ans_v13>:
 29e:	df 93       	push	r29
 2a0:	cf 93       	push	r28
 2a2:	00 d0       	rcall	.+0      	; 0x2a4 <Request_coin_id_ans_v13+0x6>
 2a4:	00 d0       	rcall	.+0      	; 0x2a6 <Request_coin_id_ans_v13+0x8>
 2a6:	00 d0       	rcall	.+0      	; 0x2a8 <Request_coin_id_ans_v13+0xa>
 2a8:	cd b7       	in	r28, 0x3d	; 61
 2aa:	de b7       	in	r29, 0x3e	; 62
 2ac:	de 01       	movw	r26, r28
 2ae:	11 96       	adiw	r26, 0x01	; 1
 2b0:	e3 e7       	ldi	r30, 0x73	; 115
 2b2:	f0 e0       	ldi	r31, 0x00	; 0
 2b4:	86 e0       	ldi	r24, 0x06	; 6
 2b6:	01 90       	ld	r0, Z+
 2b8:	0d 92       	st	X+, r0
 2ba:	81 50       	subi	r24, 0x01	; 1
 2bc:	e1 f7       	brne	.-8      	; 0x2b6 <Request_coin_id_ans_v13+0x18>
 2be:	86 e0       	ldi	r24, 0x06	; 6
 2c0:	60 e0       	ldi	r22, 0x00	; 0
 2c2:	ae 01       	movw	r20, r28
 2c4:	4f 5f       	subi	r20, 0xFF	; 255
 2c6:	5f 4f       	sbci	r21, 0xFF	; 255
 2c8:	04 df       	rcall	.-504    	; 0xd2 <send_command>
 2ca:	2f df       	rcall	.-418    	; 0x12a <check_is_money>
 2cc:	26 96       	adiw	r28, 0x06	; 6
 2ce:	0f b6       	in	r0, 0x3f	; 63
 2d0:	f8 94       	cli
 2d2:	de bf       	out	0x3e, r29	; 62
 2d4:	0f be       	out	0x3f, r0	; 63
 2d6:	cd bf       	out	0x3d, r28	; 61
 2d8:	cf 91       	pop	r28
 2da:	df 91       	pop	r29
 2dc:	08 95       	ret

000002de <Request_coin_id_ans_v12>:
 2de:	df 93       	push	r29
 2e0:	cf 93       	push	r28
 2e2:	00 d0       	rcall	.+0      	; 0x2e4 <Request_coin_id_ans_v12+0x6>
 2e4:	00 d0       	rcall	.+0      	; 0x2e6 <Request_coin_id_ans_v12+0x8>
 2e6:	00 d0       	rcall	.+0      	; 0x2e8 <Request_coin_id_ans_v12+0xa>
 2e8:	cd b7       	in	r28, 0x3d	; 61
 2ea:	de b7       	in	r29, 0x3e	; 62
 2ec:	de 01       	movw	r26, r28
 2ee:	11 96       	adiw	r26, 0x01	; 1
 2f0:	e9 e7       	ldi	r30, 0x79	; 121
 2f2:	f0 e0       	ldi	r31, 0x00	; 0
 2f4:	86 e0       	ldi	r24, 0x06	; 6
 2f6:	01 90       	ld	r0, Z+
 2f8:	0d 92       	st	X+, r0
 2fa:	81 50       	subi	r24, 0x01	; 1
 2fc:	e1 f7       	brne	.-8      	; 0x2f6 <Request_coin_id_ans_v12+0x18>
 2fe:	86 e0       	ldi	r24, 0x06	; 6
 300:	60 e0       	ldi	r22, 0x00	; 0
 302:	ae 01       	movw	r20, r28
 304:	4f 5f       	subi	r20, 0xFF	; 255
 306:	5f 4f       	sbci	r21, 0xFF	; 255
 308:	e4 de       	rcall	.-568    	; 0xd2 <send_command>
 30a:	0f df       	rcall	.-482    	; 0x12a <check_is_money>
 30c:	26 96       	adiw	r28, 0x06	; 6
 30e:	0f b6       	in	r0, 0x3f	; 63
 310:	f8 94       	cli
 312:	de bf       	out	0x3e, r29	; 62
 314:	0f be       	out	0x3f, r0	; 63
 316:	cd bf       	out	0x3d, r28	; 61
 318:	cf 91       	pop	r28
 31a:	df 91       	pop	r29
 31c:	08 95       	ret

0000031e <Request_coin_id_ans_v11>:
 31e:	df 93       	push	r29
 320:	cf 93       	push	r28
 322:	00 d0       	rcall	.+0      	; 0x324 <Request_coin_id_ans_v11+0x6>
 324:	00 d0       	rcall	.+0      	; 0x326 <Request_coin_id_ans_v11+0x8>
 326:	00 d0       	rcall	.+0      	; 0x328 <Request_coin_id_ans_v11+0xa>
 328:	cd b7       	in	r28, 0x3d	; 61
 32a:	de b7       	in	r29, 0x3e	; 62
 32c:	de 01       	movw	r26, r28
 32e:	11 96       	adiw	r26, 0x01	; 1
 330:	ef e7       	ldi	r30, 0x7F	; 127
 332:	f0 e0       	ldi	r31, 0x00	; 0
 334:	86 e0       	ldi	r24, 0x06	; 6
 336:	01 90       	ld	r0, Z+
 338:	0d 92       	st	X+, r0
 33a:	81 50       	subi	r24, 0x01	; 1
 33c:	e1 f7       	brne	.-8      	; 0x336 <Request_coin_id_ans_v11+0x18>
 33e:	86 e0       	ldi	r24, 0x06	; 6
 340:	60 e0       	ldi	r22, 0x00	; 0
 342:	ae 01       	movw	r20, r28
 344:	4f 5f       	subi	r20, 0xFF	; 255
 346:	5f 4f       	sbci	r21, 0xFF	; 255
 348:	c4 de       	rcall	.-632    	; 0xd2 <send_command>
 34a:	ef de       	rcall	.-546    	; 0x12a <check_is_money>
 34c:	26 96       	adiw	r28, 0x06	; 6
 34e:	0f b6       	in	r0, 0x3f	; 63
 350:	f8 94       	cli
 352:	de bf       	out	0x3e, r29	; 62
 354:	0f be       	out	0x3f, r0	; 63
 356:	cd bf       	out	0x3d, r28	; 61
 358:	cf 91       	pop	r28
 35a:	df 91       	pop	r29
 35c:	08 95       	ret

0000035e <Request_coin_id_ans_v10>:
 35e:	df 93       	push	r29
 360:	cf 93       	push	r28
 362:	00 d0       	rcall	.+0      	; 0x364 <Request_coin_id_ans_v10+0x6>
 364:	00 d0       	rcall	.+0      	; 0x366 <Request_coin_id_ans_v10+0x8>
 366:	00 d0       	rcall	.+0      	; 0x368 <Request_coin_id_ans_v10+0xa>
 368:	cd b7       	in	r28, 0x3d	; 61
 36a:	de b7       	in	r29, 0x3e	; 62
 36c:	de 01       	movw	r26, r28
 36e:	11 96       	adiw	r26, 0x01	; 1
 370:	e5 e8       	ldi	r30, 0x85	; 133
 372:	f0 e0       	ldi	r31, 0x00	; 0
 374:	86 e0       	ldi	r24, 0x06	; 6
 376:	01 90       	ld	r0, Z+
 378:	0d 92       	st	X+, r0
 37a:	81 50       	subi	r24, 0x01	; 1
 37c:	e1 f7       	brne	.-8      	; 0x376 <Request_coin_id_ans_v10+0x18>
 37e:	86 e0       	ldi	r24, 0x06	; 6
 380:	60 e0       	ldi	r22, 0x00	; 0
 382:	ae 01       	movw	r20, r28
 384:	4f 5f       	subi	r20, 0xFF	; 255
 386:	5f 4f       	sbci	r21, 0xFF	; 255
 388:	a4 de       	rcall	.-696    	; 0xd2 <send_command>
 38a:	cf de       	rcall	.-610    	; 0x12a <check_is_money>
 38c:	26 96       	adiw	r28, 0x06	; 6
 38e:	0f b6       	in	r0, 0x3f	; 63
 390:	f8 94       	cli
 392:	de bf       	out	0x3e, r29	; 62
 394:	0f be       	out	0x3f, r0	; 63
 396:	cd bf       	out	0x3d, r28	; 61
 398:	cf 91       	pop	r28
 39a:	df 91       	pop	r29
 39c:	08 95       	ret

0000039e <Request_coin_id_ans_v9>:
 39e:	df 93       	push	r29
 3a0:	cf 93       	push	r28
 3a2:	00 d0       	rcall	.+0      	; 0x3a4 <Request_coin_id_ans_v9+0x6>
 3a4:	00 d0       	rcall	.+0      	; 0x3a6 <Request_coin_id_ans_v9+0x8>
 3a6:	00 d0       	rcall	.+0      	; 0x3a8 <Request_coin_id_ans_v9+0xa>
 3a8:	cd b7       	in	r28, 0x3d	; 61
 3aa:	de b7       	in	r29, 0x3e	; 62
 3ac:	de 01       	movw	r26, r28
 3ae:	11 96       	adiw	r26, 0x01	; 1
 3b0:	eb e8       	ldi	r30, 0x8B	; 139
 3b2:	f0 e0       	ldi	r31, 0x00	; 0
 3b4:	86 e0       	ldi	r24, 0x06	; 6
 3b6:	01 90       	ld	r0, Z+
 3b8:	0d 92       	st	X+, r0
 3ba:	81 50       	subi	r24, 0x01	; 1
 3bc:	e1 f7       	brne	.-8      	; 0x3b6 <Request_coin_id_ans_v9+0x18>
 3be:	86 e0       	ldi	r24, 0x06	; 6
 3c0:	60 e0       	ldi	r22, 0x00	; 0
 3c2:	ae 01       	movw	r20, r28
 3c4:	4f 5f       	subi	r20, 0xFF	; 255
 3c6:	5f 4f       	sbci	r21, 0xFF	; 255
 3c8:	84 de       	rcall	.-760    	; 0xd2 <send_command>
 3ca:	af de       	rcall	.-674    	; 0x12a <check_is_money>
 3cc:	26 96       	adiw	r28, 0x06	; 6
 3ce:	0f b6       	in	r0, 0x3f	; 63
 3d0:	f8 94       	cli
 3d2:	de bf       	out	0x3e, r29	; 62
 3d4:	0f be       	out	0x3f, r0	; 63
 3d6:	cd bf       	out	0x3d, r28	; 61
 3d8:	cf 91       	pop	r28
 3da:	df 91       	pop	r29
 3dc:	08 95       	ret

000003de <Request_coin_id_ans_v8>:
 3de:	df 93       	push	r29
 3e0:	cf 93       	push	r28
 3e2:	00 d0       	rcall	.+0      	; 0x3e4 <Request_coin_id_ans_v8+0x6>
 3e4:	00 d0       	rcall	.+0      	; 0x3e6 <Request_coin_id_ans_v8+0x8>
 3e6:	00 d0       	rcall	.+0      	; 0x3e8 <Request_coin_id_ans_v8+0xa>
 3e8:	cd b7       	in	r28, 0x3d	; 61
 3ea:	de b7       	in	r29, 0x3e	; 62
 3ec:	de 01       	movw	r26, r28
 3ee:	11 96       	adiw	r26, 0x01	; 1
 3f0:	e1 e9       	ldi	r30, 0x91	; 145
 3f2:	f0 e0       	ldi	r31, 0x00	; 0
 3f4:	86 e0       	ldi	r24, 0x06	; 6
 3f6:	01 90       	ld	r0, Z+
 3f8:	0d 92       	st	X+, r0
 3fa:	81 50       	subi	r24, 0x01	; 1
 3fc:	e1 f7       	brne	.-8      	; 0x3f6 <Request_coin_id_ans_v8+0x18>
 3fe:	86 e0       	ldi	r24, 0x06	; 6
 400:	60 e0       	ldi	r22, 0x00	; 0
 402:	ae 01       	movw	r20, r28
 404:	4f 5f       	subi	r20, 0xFF	; 255
 406:	5f 4f       	sbci	r21, 0xFF	; 255
 408:	64 de       	rcall	.-824    	; 0xd2 <send_command>
 40a:	8f de       	rcall	.-738    	; 0x12a <check_is_money>
 40c:	26 96       	adiw	r28, 0x06	; 6
 40e:	0f b6       	in	r0, 0x3f	; 63
 410:	f8 94       	cli
 412:	de bf       	out	0x3e, r29	; 62
 414:	0f be       	out	0x3f, r0	; 63
 416:	cd bf       	out	0x3d, r28	; 61
 418:	cf 91       	pop	r28
 41a:	df 91       	pop	r29
 41c:	08 95       	ret

0000041e <Request_coin_id_ans_v7>:
 41e:	df 93       	push	r29
 420:	cf 93       	push	r28
 422:	00 d0       	rcall	.+0      	; 0x424 <Request_coin_id_ans_v7+0x6>
 424:	00 d0       	rcall	.+0      	; 0x426 <Request_coin_id_ans_v7+0x8>
 426:	00 d0       	rcall	.+0      	; 0x428 <Request_coin_id_ans_v7+0xa>
 428:	cd b7       	in	r28, 0x3d	; 61
 42a:	de b7       	in	r29, 0x3e	; 62
 42c:	de 01       	movw	r26, r28
 42e:	11 96       	adiw	r26, 0x01	; 1
 430:	e7 e9       	ldi	r30, 0x97	; 151
 432:	f0 e0       	ldi	r31, 0x00	; 0
 434:	86 e0       	ldi	r24, 0x06	; 6
 436:	01 90       	ld	r0, Z+
 438:	0d 92       	st	X+, r0
 43a:	81 50       	subi	r24, 0x01	; 1
 43c:	e1 f7       	brne	.-8      	; 0x436 <Request_coin_id_ans_v7+0x18>
 43e:	86 e0       	ldi	r24, 0x06	; 6
 440:	60 e0       	ldi	r22, 0x00	; 0
 442:	ae 01       	movw	r20, r28
 444:	4f 5f       	subi	r20, 0xFF	; 255
 446:	5f 4f       	sbci	r21, 0xFF	; 255
 448:	44 de       	rcall	.-888    	; 0xd2 <send_command>
 44a:	6f de       	rcall	.-802    	; 0x12a <check_is_money>
 44c:	26 96       	adiw	r28, 0x06	; 6
 44e:	0f b6       	in	r0, 0x3f	; 63
 450:	f8 94       	cli
 452:	de bf       	out	0x3e, r29	; 62
 454:	0f be       	out	0x3f, r0	; 63
 456:	cd bf       	out	0x3d, r28	; 61
 458:	cf 91       	pop	r28
 45a:	df 91       	pop	r29
 45c:	08 95       	ret

0000045e <Request_coin_id_ans_v6>:
 45e:	df 93       	push	r29
 460:	cf 93       	push	r28
 462:	00 d0       	rcall	.+0      	; 0x464 <__stack+0x5>
 464:	00 d0       	rcall	.+0      	; 0x466 <__stack+0x7>
 466:	00 d0       	rcall	.+0      	; 0x468 <__stack+0x9>
 468:	cd b7       	in	r28, 0x3d	; 61
 46a:	de b7       	in	r29, 0x3e	; 62
 46c:	de 01       	movw	r26, r28
 46e:	11 96       	adiw	r26, 0x01	; 1
 470:	ed e9       	ldi	r30, 0x9D	; 157
 472:	f0 e0       	ldi	r31, 0x00	; 0
 474:	86 e0       	ldi	r24, 0x06	; 6
 476:	01 90       	ld	r0, Z+
 478:	0d 92       	st	X+, r0
 47a:	81 50       	subi	r24, 0x01	; 1
 47c:	e1 f7       	brne	.-8      	; 0x476 <__stack+0x17>
 47e:	86 e0       	ldi	r24, 0x06	; 6
 480:	60 e0       	ldi	r22, 0x00	; 0
 482:	ae 01       	movw	r20, r28
 484:	4f 5f       	subi	r20, 0xFF	; 255
 486:	5f 4f       	sbci	r21, 0xFF	; 255
 488:	24 de       	rcall	.-952    	; 0xd2 <send_command>
 48a:	4f de       	rcall	.-866    	; 0x12a <check_is_money>
 48c:	26 96       	adiw	r28, 0x06	; 6
 48e:	0f b6       	in	r0, 0x3f	; 63
 490:	f8 94       	cli
 492:	de bf       	out	0x3e, r29	; 62
 494:	0f be       	out	0x3f, r0	; 63
 496:	cd bf       	out	0x3d, r28	; 61
 498:	cf 91       	pop	r28
 49a:	df 91       	pop	r29
 49c:	08 95       	ret

0000049e <Request_coin_id_ans_v5>:
 49e:	df 93       	push	r29
 4a0:	cf 93       	push	r28
 4a2:	00 d0       	rcall	.+0      	; 0x4a4 <Request_coin_id_ans_v5+0x6>
 4a4:	00 d0       	rcall	.+0      	; 0x4a6 <Request_coin_id_ans_v5+0x8>
 4a6:	00 d0       	rcall	.+0      	; 0x4a8 <Request_coin_id_ans_v5+0xa>
 4a8:	cd b7       	in	r28, 0x3d	; 61
 4aa:	de b7       	in	r29, 0x3e	; 62
 4ac:	de 01       	movw	r26, r28
 4ae:	11 96       	adiw	r26, 0x01	; 1
 4b0:	e3 ea       	ldi	r30, 0xA3	; 163
 4b2:	f0 e0       	ldi	r31, 0x00	; 0
 4b4:	86 e0       	ldi	r24, 0x06	; 6
 4b6:	01 90       	ld	r0, Z+
 4b8:	0d 92       	st	X+, r0
 4ba:	81 50       	subi	r24, 0x01	; 1
 4bc:	e1 f7       	brne	.-8      	; 0x4b6 <Request_coin_id_ans_v5+0x18>
 4be:	86 e0       	ldi	r24, 0x06	; 6
 4c0:	60 e0       	ldi	r22, 0x00	; 0
 4c2:	ae 01       	movw	r20, r28
 4c4:	4f 5f       	subi	r20, 0xFF	; 255
 4c6:	5f 4f       	sbci	r21, 0xFF	; 255
 4c8:	04 de       	rcall	.-1016   	; 0xd2 <send_command>
 4ca:	2f de       	rcall	.-930    	; 0x12a <check_is_money>
 4cc:	26 96       	adiw	r28, 0x06	; 6
 4ce:	0f b6       	in	r0, 0x3f	; 63
 4d0:	f8 94       	cli
 4d2:	de bf       	out	0x3e, r29	; 62
 4d4:	0f be       	out	0x3f, r0	; 63
 4d6:	cd bf       	out	0x3d, r28	; 61
 4d8:	cf 91       	pop	r28
 4da:	df 91       	pop	r29
 4dc:	08 95       	ret

000004de <Request_coin_id_ans_v4>:
 4de:	df 93       	push	r29
 4e0:	cf 93       	push	r28
 4e2:	00 d0       	rcall	.+0      	; 0x4e4 <Request_coin_id_ans_v4+0x6>
 4e4:	00 d0       	rcall	.+0      	; 0x4e6 <Request_coin_id_ans_v4+0x8>
 4e6:	00 d0       	rcall	.+0      	; 0x4e8 <Request_coin_id_ans_v4+0xa>
 4e8:	cd b7       	in	r28, 0x3d	; 61
 4ea:	de b7       	in	r29, 0x3e	; 62
 4ec:	de 01       	movw	r26, r28
 4ee:	11 96       	adiw	r26, 0x01	; 1
 4f0:	e9 ea       	ldi	r30, 0xA9	; 169
 4f2:	f0 e0       	ldi	r31, 0x00	; 0
 4f4:	86 e0       	ldi	r24, 0x06	; 6
 4f6:	01 90       	ld	r0, Z+
 4f8:	0d 92       	st	X+, r0
 4fa:	81 50       	subi	r24, 0x01	; 1
 4fc:	e1 f7       	brne	.-8      	; 0x4f6 <Request_coin_id_ans_v4+0x18>
 4fe:	86 e0       	ldi	r24, 0x06	; 6
 500:	60 e0       	ldi	r22, 0x00	; 0
 502:	ae 01       	movw	r20, r28
 504:	4f 5f       	subi	r20, 0xFF	; 255
 506:	5f 4f       	sbci	r21, 0xFF	; 255
 508:	e4 dd       	rcall	.-1080   	; 0xd2 <send_command>
 50a:	0f de       	rcall	.-994    	; 0x12a <check_is_money>
 50c:	26 96       	adiw	r28, 0x06	; 6
 50e:	0f b6       	in	r0, 0x3f	; 63
 510:	f8 94       	cli
 512:	de bf       	out	0x3e, r29	; 62
 514:	0f be       	out	0x3f, r0	; 63
 516:	cd bf       	out	0x3d, r28	; 61
 518:	cf 91       	pop	r28
 51a:	df 91       	pop	r29
 51c:	08 95       	ret

0000051e <Request_coin_id_ans_v3>:
 51e:	df 93       	push	r29
 520:	cf 93       	push	r28
 522:	00 d0       	rcall	.+0      	; 0x524 <Request_coin_id_ans_v3+0x6>
 524:	00 d0       	rcall	.+0      	; 0x526 <Request_coin_id_ans_v3+0x8>
 526:	00 d0       	rcall	.+0      	; 0x528 <Request_coin_id_ans_v3+0xa>
 528:	cd b7       	in	r28, 0x3d	; 61
 52a:	de b7       	in	r29, 0x3e	; 62
 52c:	de 01       	movw	r26, r28
 52e:	11 96       	adiw	r26, 0x01	; 1
 530:	ef ea       	ldi	r30, 0xAF	; 175
 532:	f0 e0       	ldi	r31, 0x00	; 0
 534:	86 e0       	ldi	r24, 0x06	; 6
 536:	01 90       	ld	r0, Z+
 538:	0d 92       	st	X+, r0
 53a:	81 50       	subi	r24, 0x01	; 1
 53c:	e1 f7       	brne	.-8      	; 0x536 <Request_coin_id_ans_v3+0x18>
 53e:	86 e0       	ldi	r24, 0x06	; 6
 540:	60 e0       	ldi	r22, 0x00	; 0
 542:	ae 01       	movw	r20, r28
 544:	4f 5f       	subi	r20, 0xFF	; 255
 546:	5f 4f       	sbci	r21, 0xFF	; 255
 548:	c4 dd       	rcall	.-1144   	; 0xd2 <send_command>
 54a:	ef dd       	rcall	.-1058   	; 0x12a <check_is_money>
 54c:	26 96       	adiw	r28, 0x06	; 6
 54e:	0f b6       	in	r0, 0x3f	; 63
 550:	f8 94       	cli
 552:	de bf       	out	0x3e, r29	; 62
 554:	0f be       	out	0x3f, r0	; 63
 556:	cd bf       	out	0x3d, r28	; 61
 558:	cf 91       	pop	r28
 55a:	df 91       	pop	r29
 55c:	08 95       	ret

0000055e <Request_coin_id_ans_v2>:
 55e:	df 93       	push	r29
 560:	cf 93       	push	r28
 562:	00 d0       	rcall	.+0      	; 0x564 <Request_coin_id_ans_v2+0x6>
 564:	00 d0       	rcall	.+0      	; 0x566 <Request_coin_id_ans_v2+0x8>
 566:	00 d0       	rcall	.+0      	; 0x568 <Request_coin_id_ans_v2+0xa>
 568:	cd b7       	in	r28, 0x3d	; 61
 56a:	de b7       	in	r29, 0x3e	; 62
 56c:	de 01       	movw	r26, r28
 56e:	11 96       	adiw	r26, 0x01	; 1
 570:	e5 eb       	ldi	r30, 0xB5	; 181
 572:	f0 e0       	ldi	r31, 0x00	; 0
 574:	86 e0       	ldi	r24, 0x06	; 6
 576:	01 90       	ld	r0, Z+
 578:	0d 92       	st	X+, r0
 57a:	81 50       	subi	r24, 0x01	; 1
 57c:	e1 f7       	brne	.-8      	; 0x576 <Request_coin_id_ans_v2+0x18>
 57e:	86 e0       	ldi	r24, 0x06	; 6
 580:	60 e0       	ldi	r22, 0x00	; 0
 582:	ae 01       	movw	r20, r28
 584:	4f 5f       	subi	r20, 0xFF	; 255
 586:	5f 4f       	sbci	r21, 0xFF	; 255
 588:	a4 dd       	rcall	.-1208   	; 0xd2 <send_command>
 58a:	cf dd       	rcall	.-1122   	; 0x12a <check_is_money>
 58c:	26 96       	adiw	r28, 0x06	; 6
 58e:	0f b6       	in	r0, 0x3f	; 63
 590:	f8 94       	cli
 592:	de bf       	out	0x3e, r29	; 62
 594:	0f be       	out	0x3f, r0	; 63
 596:	cd bf       	out	0x3d, r28	; 61
 598:	cf 91       	pop	r28
 59a:	df 91       	pop	r29
 59c:	08 95       	ret

0000059e <Request_sorter_paths_ans>:
 59e:	df 93       	push	r29
 5a0:	cf 93       	push	r28
 5a2:	00 d0       	rcall	.+0      	; 0x5a4 <Request_sorter_paths_ans+0x6>
 5a4:	00 d0       	rcall	.+0      	; 0x5a6 <Request_sorter_paths_ans+0x8>
 5a6:	cd b7       	in	r28, 0x3d	; 61
 5a8:	de b7       	in	r29, 0x3e	; 62
 5aa:	81 e0       	ldi	r24, 0x01	; 1
 5ac:	89 83       	std	Y+1, r24	; 0x01
 5ae:	8a 83       	std	Y+2, r24	; 0x02
 5b0:	8b 83       	std	Y+3, r24	; 0x03
 5b2:	8c 83       	std	Y+4, r24	; 0x04
 5b4:	84 e0       	ldi	r24, 0x04	; 4
 5b6:	60 e0       	ldi	r22, 0x00	; 0
 5b8:	ae 01       	movw	r20, r28
 5ba:	4f 5f       	subi	r20, 0xFF	; 255
 5bc:	5f 4f       	sbci	r21, 0xFF	; 255
 5be:	89 dd       	rcall	.-1262   	; 0xd2 <send_command>
 5c0:	b4 dd       	rcall	.-1176   	; 0x12a <check_is_money>
 5c2:	0f 90       	pop	r0
 5c4:	0f 90       	pop	r0
 5c6:	0f 90       	pop	r0
 5c8:	0f 90       	pop	r0
 5ca:	cf 91       	pop	r28
 5cc:	df 91       	pop	r29
 5ce:	08 95       	ret

000005d0 <Request_coin_id_ans>:
 5d0:	df 93       	push	r29
 5d2:	cf 93       	push	r28
 5d4:	00 d0       	rcall	.+0      	; 0x5d6 <Request_coin_id_ans+0x6>
 5d6:	00 d0       	rcall	.+0      	; 0x5d8 <Request_coin_id_ans+0x8>
 5d8:	00 d0       	rcall	.+0      	; 0x5da <Request_coin_id_ans+0xa>
 5da:	cd b7       	in	r28, 0x3d	; 61
 5dc:	de b7       	in	r29, 0x3e	; 62
 5de:	de 01       	movw	r26, r28
 5e0:	11 96       	adiw	r26, 0x01	; 1
 5e2:	eb eb       	ldi	r30, 0xBB	; 187
 5e4:	f0 e0       	ldi	r31, 0x00	; 0
 5e6:	86 e0       	ldi	r24, 0x06	; 6
 5e8:	01 90       	ld	r0, Z+
 5ea:	0d 92       	st	X+, r0
 5ec:	81 50       	subi	r24, 0x01	; 1
 5ee:	e1 f7       	brne	.-8      	; 0x5e8 <Request_coin_id_ans+0x18>
 5f0:	86 e0       	ldi	r24, 0x06	; 6
 5f2:	60 e0       	ldi	r22, 0x00	; 0
 5f4:	ae 01       	movw	r20, r28
 5f6:	4f 5f       	subi	r20, 0xFF	; 255
 5f8:	5f 4f       	sbci	r21, 0xFF	; 255
 5fa:	6b dd       	rcall	.-1322   	; 0xd2 <send_command>
 5fc:	96 dd       	rcall	.-1236   	; 0x12a <check_is_money>
 5fe:	26 96       	adiw	r28, 0x06	; 6
 600:	0f b6       	in	r0, 0x3f	; 63
 602:	f8 94       	cli
 604:	de bf       	out	0x3e, r29	; 62
 606:	0f be       	out	0x3f, r0	; 63
 608:	cd bf       	out	0x3d, r28	; 61
 60a:	cf 91       	pop	r28
 60c:	df 91       	pop	r29
 60e:	08 95       	ret

00000610 <Request_software_version_ans>:
 610:	df 93       	push	r29
 612:	cf 93       	push	r28
 614:	00 d0       	rcall	.+0      	; 0x616 <Request_software_version_ans+0x6>
 616:	00 d0       	rcall	.+0      	; 0x618 <Request_software_version_ans+0x8>
 618:	0f 92       	push	r0
 61a:	cd b7       	in	r28, 0x3d	; 61
 61c:	de b7       	in	r29, 0x3e	; 62
 61e:	de 01       	movw	r26, r28
 620:	11 96       	adiw	r26, 0x01	; 1
 622:	e1 ec       	ldi	r30, 0xC1	; 193
 624:	f0 e0       	ldi	r31, 0x00	; 0
 626:	85 e0       	ldi	r24, 0x05	; 5
 628:	01 90       	ld	r0, Z+
 62a:	0d 92       	st	X+, r0
 62c:	81 50       	subi	r24, 0x01	; 1
 62e:	e1 f7       	brne	.-8      	; 0x628 <Request_software_version_ans+0x18>
 630:	85 e0       	ldi	r24, 0x05	; 5
 632:	60 e0       	ldi	r22, 0x00	; 0
 634:	ae 01       	movw	r20, r28
 636:	4f 5f       	subi	r20, 0xFF	; 255
 638:	5f 4f       	sbci	r21, 0xFF	; 255
 63a:	4b dd       	rcall	.-1386   	; 0xd2 <send_command>
 63c:	76 dd       	rcall	.-1300   	; 0x12a <check_is_money>
 63e:	0f 90       	pop	r0
 640:	0f 90       	pop	r0
 642:	0f 90       	pop	r0
 644:	0f 90       	pop	r0
 646:	0f 90       	pop	r0
 648:	cf 91       	pop	r28
 64a:	df 91       	pop	r29
 64c:	08 95       	ret

0000064e <Request_serial_number_ans>:
 64e:	df 93       	push	r29
 650:	cf 93       	push	r28
 652:	00 d0       	rcall	.+0      	; 0x654 <Request_serial_number_ans+0x6>
 654:	0f 92       	push	r0
 656:	cd b7       	in	r28, 0x3d	; 61
 658:	de b7       	in	r29, 0x3e	; 62
 65a:	de 01       	movw	r26, r28
 65c:	11 96       	adiw	r26, 0x01	; 1
 65e:	e6 ec       	ldi	r30, 0xC6	; 198
 660:	f0 e0       	ldi	r31, 0x00	; 0
 662:	83 e0       	ldi	r24, 0x03	; 3
 664:	01 90       	ld	r0, Z+
 666:	0d 92       	st	X+, r0
 668:	81 50       	subi	r24, 0x01	; 1
 66a:	e1 f7       	brne	.-8      	; 0x664 <Request_serial_number_ans+0x16>
 66c:	83 e0       	ldi	r24, 0x03	; 3
 66e:	60 e0       	ldi	r22, 0x00	; 0
 670:	ae 01       	movw	r20, r28
 672:	4f 5f       	subi	r20, 0xFF	; 255
 674:	5f 4f       	sbci	r21, 0xFF	; 255
 676:	2d dd       	rcall	.-1446   	; 0xd2 <send_command>
 678:	58 dd       	rcall	.-1360   	; 0x12a <check_is_money>
 67a:	0f 90       	pop	r0
 67c:	0f 90       	pop	r0
 67e:	0f 90       	pop	r0
 680:	cf 91       	pop	r28
 682:	df 91       	pop	r29
 684:	08 95       	ret

00000686 <Reset_device_ans>:
 686:	80 e0       	ldi	r24, 0x00	; 0
 688:	60 e0       	ldi	r22, 0x00	; 0
 68a:	40 e0       	ldi	r20, 0x00	; 0
 68c:	50 e0       	ldi	r21, 0x00	; 0
 68e:	21 dd       	rcall	.-1470   	; 0xd2 <send_command>
 690:	4c dd       	rcall	.-1384   	; 0x12a <check_is_money>
 692:	08 95       	ret

00000694 <Request_manufacturer_id_ans>:
 694:	df 93       	push	r29
 696:	cf 93       	push	r28
 698:	00 d0       	rcall	.+0      	; 0x69a <Request_manufacturer_id_ans+0x6>
 69a:	0f 92       	push	r0
 69c:	cd b7       	in	r28, 0x3d	; 61
 69e:	de b7       	in	r29, 0x3e	; 62
 6a0:	de 01       	movw	r26, r28
 6a2:	11 96       	adiw	r26, 0x01	; 1
 6a4:	e9 ec       	ldi	r30, 0xC9	; 201
 6a6:	f0 e0       	ldi	r31, 0x00	; 0
 6a8:	83 e0       	ldi	r24, 0x03	; 3
 6aa:	01 90       	ld	r0, Z+
 6ac:	0d 92       	st	X+, r0
 6ae:	81 50       	subi	r24, 0x01	; 1
 6b0:	e1 f7       	brne	.-8      	; 0x6aa <Request_manufacturer_id_ans+0x16>
 6b2:	83 e0       	ldi	r24, 0x03	; 3
 6b4:	60 e0       	ldi	r22, 0x00	; 0
 6b6:	ae 01       	movw	r20, r28
 6b8:	4f 5f       	subi	r20, 0xFF	; 255
 6ba:	5f 4f       	sbci	r21, 0xFF	; 255
 6bc:	0a dd       	rcall	.-1516   	; 0xd2 <send_command>
 6be:	35 dd       	rcall	.-1430   	; 0x12a <check_is_money>
 6c0:	0f 90       	pop	r0
 6c2:	0f 90       	pop	r0
 6c4:	0f 90       	pop	r0
 6c6:	cf 91       	pop	r28
 6c8:	df 91       	pop	r29
 6ca:	08 95       	ret

000006cc <Simple_poll_ans>:
 6cc:	80 e0       	ldi	r24, 0x00	; 0
 6ce:	62 e0       	ldi	r22, 0x02	; 2
 6d0:	40 e0       	ldi	r20, 0x00	; 0
 6d2:	50 e0       	ldi	r21, 0x00	; 0
 6d4:	fe dc       	rcall	.-1540   	; 0xd2 <send_command>
 6d6:	29 dd       	rcall	.-1454   	; 0x12a <check_is_money>
 6d8:	08 95       	ret

000006da <uart_init>:
 6da:	90 bd       	out	0x20, r25	; 32
 6dc:	89 b9       	out	0x09, r24	; 9
 6de:	88 e1       	ldi	r24, 0x18	; 24
 6e0:	8a b9       	out	0x0a, r24	; 10
 6e2:	86 e8       	ldi	r24, 0x86	; 134
 6e4:	80 bd       	out	0x20, r24	; 32
 6e6:	08 95       	ret

000006e8 <uart_putc>:
 6e8:	5d 9b       	sbis	0x0b, 5	; 11
 6ea:	fe cf       	rjmp	.-4      	; 0x6e8 <uart_putc>
 6ec:	8c b9       	out	0x0c, r24	; 12
 6ee:	08 95       	ret

000006f0 <uart_ischar>:
 6f0:	8b b1       	in	r24, 0x0b	; 11
 6f2:	80 78       	andi	r24, 0x80	; 128
 6f4:	08 95       	ret

000006f6 <uart_getc>:
 6f6:	01 c0       	rjmp	.+2      	; 0x6fa <uart_getc+0x4>
 6f8:	18 dd       	rcall	.-1488   	; 0x12a <check_is_money>
 6fa:	5f 9b       	sbis	0x0b, 7	; 11
 6fc:	fd cf       	rjmp	.-6      	; 0x6f8 <uart_getc+0x2>
 6fe:	8c b1       	in	r24, 0x0c	; 12
 700:	08 95       	ret

00000702 <main>:
 702:	0f 93       	push	r16
 704:	1f 93       	push	r17
 706:	df 93       	push	r29
 708:	cf 93       	push	r28
 70a:	0f 92       	push	r0
 70c:	cd b7       	in	r28, 0x3d	; 61
 70e:	de b7       	in	r29, 0x3e	; 62
 710:	ba 98       	cbi	0x17, 2	; 23
 712:	c2 9a       	sbi	0x18, 2	; 24
 714:	8b 9a       	sbi	0x11, 3	; 17
 716:	93 98       	cbi	0x12, 3	; 18
 718:	10 bc       	out	0x20, r1	; 32
 71a:	83 e3       	ldi	r24, 0x33	; 51
 71c:	89 b9       	out	0x09, r24	; 9
 71e:	88 e1       	ldi	r24, 0x18	; 24
 720:	8a b9       	out	0x0a, r24	; 10
 722:	86 e8       	ldi	r24, 0x86	; 134
 724:	80 bd       	out	0x20, r24	; 32
 726:	80 e2       	ldi	r24, 0x20	; 32
 728:	9e e4       	ldi	r25, 0x4E	; 78
 72a:	28 ec       	ldi	r18, 0xC8	; 200
 72c:	30 e0       	ldi	r19, 0x00	; 0
 72e:	f9 01       	movw	r30, r18
 730:	31 97       	sbiw	r30, 0x01	; 1
 732:	f1 f7       	brne	.-4      	; 0x730 <main+0x2e>
 734:	01 97       	sbiw	r24, 0x01	; 1
 736:	d9 f7       	brne	.-10     	; 0x72e <main+0x2c>
 738:	80 e0       	ldi	r24, 0x00	; 0
 73a:	90 e0       	ldi	r25, 0x00	; 0
 73c:	fc 01       	movw	r30, r24
 73e:	e7 52       	subi	r30, 0x27	; 39
 740:	ff 4f       	sbci	r31, 0xFF	; 255
 742:	10 82       	st	Z, r1
 744:	01 96       	adiw	r24, 0x01	; 1
 746:	88 32       	cpi	r24, 0x28	; 40
 748:	91 05       	cpc	r25, r1
 74a:	c1 f7       	brne	.-16     	; 0x73c <main+0x3a>
 74c:	ee dc       	rcall	.-1572   	; 0x12a <check_is_money>
 74e:	d3 df       	rcall	.-90     	; 0x6f6 <uart_getc>
 750:	80 93 d9 00 	sts	0x00D9, r24
 754:	ea dc       	rcall	.-1580   	; 0x12a <check_is_money>
 756:	80 91 d9 00 	lds	r24, 0x00D9
 75a:	82 30       	cpi	r24, 0x02	; 2
 75c:	51 f4       	brne	.+20     	; 0x772 <main+0x70>
 75e:	cb df       	rcall	.-106    	; 0x6f6 <uart_getc>
 760:	80 93 da 00 	sts	0x00DA, r24
 764:	c8 df       	rcall	.-112    	; 0x6f6 <uart_getc>
 766:	80 93 db 00 	sts	0x00DB, r24
 76a:	80 91 d9 00 	lds	r24, 0x00D9
 76e:	82 30       	cpi	r24, 0x02	; 2
 770:	19 f0       	breq	.+6      	; 0x778 <main+0x76>
 772:	80 e0       	ldi	r24, 0x00	; 0
 774:	90 e0       	ldi	r25, 0x00	; 0
 776:	4e c3       	rjmp	.+1692   	; 0xe14 <main+0x712>
 778:	80 91 db 00 	lds	r24, 0x00DB
 77c:	81 30       	cpi	r24, 0x01	; 1
 77e:	c9 f7       	brne	.-14     	; 0x772 <main+0x70>
 780:	ba df       	rcall	.-140    	; 0x6f6 <uart_getc>
 782:	80 93 dc 00 	sts	0x00DC, r24
 786:	b7 df       	rcall	.-146    	; 0x6f6 <uart_getc>
 788:	80 93 dd 00 	sts	0x00DD, r24
 78c:	90 e0       	ldi	r25, 0x00	; 0
 78e:	0c c0       	rjmp	.+24     	; 0x7a8 <main+0xa6>
 790:	09 2f       	mov	r16, r25
 792:	10 e0       	ldi	r17, 0x00	; 0
 794:	0b 5f       	subi	r16, 0xFB	; 251
 796:	1f 4f       	sbci	r17, 0xFF	; 255
 798:	99 83       	std	Y+1, r25	; 0x01
 79a:	ad df       	rcall	.-166    	; 0x6f6 <uart_getc>
 79c:	07 52       	subi	r16, 0x27	; 39
 79e:	1f 4f       	sbci	r17, 0xFF	; 255
 7a0:	f8 01       	movw	r30, r16
 7a2:	80 83       	st	Z, r24
 7a4:	99 81       	ldd	r25, Y+1	; 0x01
 7a6:	9f 5f       	subi	r25, 0xFF	; 255
 7a8:	80 91 da 00 	lds	r24, 0x00DA
 7ac:	98 17       	cp	r25, r24
 7ae:	80 f3       	brcs	.-32     	; 0x790 <main+0x8e>
 7b0:	bc dc       	rcall	.-1672   	; 0x12a <check_is_money>
 7b2:	80 91 d9 00 	lds	r24, 0x00D9
 7b6:	82 30       	cpi	r24, 0x02	; 2
 7b8:	89 f4       	brne	.+34     	; 0x7dc <main+0xda>
 7ba:	80 91 da 00 	lds	r24, 0x00DA
 7be:	88 23       	and	r24, r24
 7c0:	69 f4       	brne	.+26     	; 0x7dc <main+0xda>
 7c2:	80 91 db 00 	lds	r24, 0x00DB
 7c6:	81 30       	cpi	r24, 0x01	; 1
 7c8:	49 f4       	brne	.+18     	; 0x7dc <main+0xda>
 7ca:	80 91 dc 00 	lds	r24, 0x00DC
 7ce:	8e 3f       	cpi	r24, 0xFE	; 254
 7d0:	29 f4       	brne	.+10     	; 0x7dc <main+0xda>
 7d2:	80 91 dd 00 	lds	r24, 0x00DD
 7d6:	8f 3f       	cpi	r24, 0xFF	; 255
 7d8:	09 f4       	brne	.+2      	; 0x7dc <main+0xda>
 7da:	78 df       	rcall	.-272    	; 0x6cc <Simple_poll_ans>
 7dc:	80 91 d9 00 	lds	r24, 0x00D9
 7e0:	82 30       	cpi	r24, 0x02	; 2
 7e2:	89 f4       	brne	.+34     	; 0x806 <main+0x104>
 7e4:	80 91 da 00 	lds	r24, 0x00DA
 7e8:	88 23       	and	r24, r24
 7ea:	69 f4       	brne	.+26     	; 0x806 <main+0x104>
 7ec:	80 91 db 00 	lds	r24, 0x00DB
 7f0:	81 30       	cpi	r24, 0x01	; 1
 7f2:	49 f4       	brne	.+18     	; 0x806 <main+0x104>
 7f4:	80 91 dc 00 	lds	r24, 0x00DC
 7f8:	86 3f       	cpi	r24, 0xF6	; 246
 7fa:	29 f4       	brne	.+10     	; 0x806 <main+0x104>
 7fc:	80 91 dd 00 	lds	r24, 0x00DD
 800:	87 30       	cpi	r24, 0x07	; 7
 802:	09 f4       	brne	.+2      	; 0x806 <main+0x104>
 804:	47 df       	rcall	.-370    	; 0x694 <Request_manufacturer_id_ans>
 806:	80 91 d9 00 	lds	r24, 0x00D9
 80a:	82 30       	cpi	r24, 0x02	; 2
 80c:	89 f4       	brne	.+34     	; 0x830 <main+0x12e>
 80e:	80 91 da 00 	lds	r24, 0x00DA
 812:	88 23       	and	r24, r24
 814:	69 f4       	brne	.+26     	; 0x830 <main+0x12e>
 816:	80 91 db 00 	lds	r24, 0x00DB
 81a:	81 30       	cpi	r24, 0x01	; 1
 81c:	49 f4       	brne	.+18     	; 0x830 <main+0x12e>
 81e:	80 91 dc 00 	lds	r24, 0x00DC
 822:	81 30       	cpi	r24, 0x01	; 1
 824:	29 f4       	brne	.+10     	; 0x830 <main+0x12e>
 826:	80 91 dd 00 	lds	r24, 0x00DD
 82a:	8c 3f       	cpi	r24, 0xFC	; 252
 82c:	09 f4       	brne	.+2      	; 0x830 <main+0x12e>
 82e:	2b df       	rcall	.-426    	; 0x686 <Reset_device_ans>
 830:	80 91 d9 00 	lds	r24, 0x00D9
 834:	82 30       	cpi	r24, 0x02	; 2
 836:	89 f4       	brne	.+34     	; 0x85a <main+0x158>
 838:	80 91 da 00 	lds	r24, 0x00DA
 83c:	88 23       	and	r24, r24
 83e:	69 f4       	brne	.+26     	; 0x85a <main+0x158>
 840:	80 91 db 00 	lds	r24, 0x00DB
 844:	81 30       	cpi	r24, 0x01	; 1
 846:	49 f4       	brne	.+18     	; 0x85a <main+0x158>
 848:	80 91 dc 00 	lds	r24, 0x00DC
 84c:	82 3f       	cpi	r24, 0xF2	; 242
 84e:	29 f4       	brne	.+10     	; 0x85a <main+0x158>
 850:	80 91 dd 00 	lds	r24, 0x00DD
 854:	8b 30       	cpi	r24, 0x0B	; 11
 856:	09 f4       	brne	.+2      	; 0x85a <main+0x158>
 858:	fa de       	rcall	.-524    	; 0x64e <Request_serial_number_ans>
 85a:	80 91 d9 00 	lds	r24, 0x00D9
 85e:	82 30       	cpi	r24, 0x02	; 2
 860:	89 f4       	brne	.+34     	; 0x884 <main+0x182>
 862:	80 91 da 00 	lds	r24, 0x00DA
 866:	88 23       	and	r24, r24
 868:	69 f4       	brne	.+26     	; 0x884 <main+0x182>
 86a:	80 91 db 00 	lds	r24, 0x00DB
 86e:	81 30       	cpi	r24, 0x01	; 1
 870:	49 f4       	brne	.+18     	; 0x884 <main+0x182>
 872:	80 91 dc 00 	lds	r24, 0x00DC
 876:	81 3f       	cpi	r24, 0xF1	; 241
 878:	29 f4       	brne	.+10     	; 0x884 <main+0x182>
 87a:	80 91 dd 00 	lds	r24, 0x00DD
 87e:	8c 30       	cpi	r24, 0x0C	; 12
 880:	09 f4       	brne	.+2      	; 0x884 <main+0x182>
 882:	c6 de       	rcall	.-628    	; 0x610 <Request_software_version_ans>
 884:	80 91 d9 00 	lds	r24, 0x00D9
 888:	82 30       	cpi	r24, 0x02	; 2
 88a:	a9 f4       	brne	.+42     	; 0x8b6 <main+0x1b4>
 88c:	80 91 da 00 	lds	r24, 0x00DA
 890:	81 30       	cpi	r24, 0x01	; 1
 892:	89 f4       	brne	.+34     	; 0x8b6 <main+0x1b4>
 894:	80 91 db 00 	lds	r24, 0x00DB
 898:	81 30       	cpi	r24, 0x01	; 1
 89a:	69 f4       	brne	.+26     	; 0x8b6 <main+0x1b4>
 89c:	80 91 dc 00 	lds	r24, 0x00DC
 8a0:	88 3b       	cpi	r24, 0xB8	; 184
 8a2:	49 f4       	brne	.+18     	; 0x8b6 <main+0x1b4>
 8a4:	80 91 dd 00 	lds	r24, 0x00DD
 8a8:	81 30       	cpi	r24, 0x01	; 1
 8aa:	29 f4       	brne	.+10     	; 0x8b6 <main+0x1b4>
 8ac:	80 91 de 00 	lds	r24, 0x00DE
 8b0:	83 34       	cpi	r24, 0x43	; 67
 8b2:	09 f4       	brne	.+2      	; 0x8b6 <main+0x1b4>
 8b4:	8d de       	rcall	.-742    	; 0x5d0 <Request_coin_id_ans>
 8b6:	80 91 d9 00 	lds	r24, 0x00D9
 8ba:	82 30       	cpi	r24, 0x02	; 2
 8bc:	a9 f4       	brne	.+42     	; 0x8e8 <main+0x1e6>
 8be:	80 91 da 00 	lds	r24, 0x00DA
 8c2:	81 30       	cpi	r24, 0x01	; 1
 8c4:	89 f4       	brne	.+34     	; 0x8e8 <main+0x1e6>
 8c6:	80 91 db 00 	lds	r24, 0x00DB
 8ca:	81 30       	cpi	r24, 0x01	; 1
 8cc:	69 f4       	brne	.+26     	; 0x8e8 <main+0x1e6>
 8ce:	80 91 dc 00 	lds	r24, 0x00DC
 8d2:	81 3d       	cpi	r24, 0xD1	; 209
 8d4:	49 f4       	brne	.+18     	; 0x8e8 <main+0x1e6>
 8d6:	80 91 dd 00 	lds	r24, 0x00DD
 8da:	81 30       	cpi	r24, 0x01	; 1
 8dc:	29 f4       	brne	.+10     	; 0x8e8 <main+0x1e6>
 8de:	80 91 de 00 	lds	r24, 0x00DE
 8e2:	8a 32       	cpi	r24, 0x2A	; 42
 8e4:	09 f4       	brne	.+2      	; 0x8e8 <main+0x1e6>
 8e6:	5b de       	rcall	.-842    	; 0x59e <Request_sorter_paths_ans>
 8e8:	80 91 d9 00 	lds	r24, 0x00D9
 8ec:	82 30       	cpi	r24, 0x02	; 2
 8ee:	a9 f4       	brne	.+42     	; 0x91a <main+0x218>
 8f0:	80 91 da 00 	lds	r24, 0x00DA
 8f4:	81 30       	cpi	r24, 0x01	; 1
 8f6:	89 f4       	brne	.+34     	; 0x91a <main+0x218>
 8f8:	80 91 db 00 	lds	r24, 0x00DB
 8fc:	81 30       	cpi	r24, 0x01	; 1
 8fe:	69 f4       	brne	.+26     	; 0x91a <main+0x218>
 900:	80 91 dc 00 	lds	r24, 0x00DC
 904:	88 3b       	cpi	r24, 0xB8	; 184
 906:	49 f4       	brne	.+18     	; 0x91a <main+0x218>
 908:	80 91 dd 00 	lds	r24, 0x00DD
 90c:	82 30       	cpi	r24, 0x02	; 2
 90e:	29 f4       	brne	.+10     	; 0x91a <main+0x218>
 910:	80 91 de 00 	lds	r24, 0x00DE
 914:	82 34       	cpi	r24, 0x42	; 66
 916:	09 f4       	brne	.+2      	; 0x91a <main+0x218>
 918:	22 de       	rcall	.-956    	; 0x55e <Request_coin_id_ans_v2>
 91a:	80 91 d9 00 	lds	r24, 0x00D9
 91e:	82 30       	cpi	r24, 0x02	; 2
 920:	a9 f4       	brne	.+42     	; 0x94c <main+0x24a>
 922:	80 91 da 00 	lds	r24, 0x00DA
 926:	81 30       	cpi	r24, 0x01	; 1
 928:	89 f4       	brne	.+34     	; 0x94c <main+0x24a>
 92a:	80 91 db 00 	lds	r24, 0x00DB
 92e:	81 30       	cpi	r24, 0x01	; 1
 930:	69 f4       	brne	.+26     	; 0x94c <main+0x24a>
 932:	80 91 dc 00 	lds	r24, 0x00DC
 936:	81 3d       	cpi	r24, 0xD1	; 209
 938:	49 f4       	brne	.+18     	; 0x94c <main+0x24a>
 93a:	80 91 dd 00 	lds	r24, 0x00DD
 93e:	82 30       	cpi	r24, 0x02	; 2
 940:	29 f4       	brne	.+10     	; 0x94c <main+0x24a>
 942:	80 91 de 00 	lds	r24, 0x00DE
 946:	89 32       	cpi	r24, 0x29	; 41
 948:	09 f4       	brne	.+2      	; 0x94c <main+0x24a>
 94a:	29 de       	rcall	.-942    	; 0x59e <Request_sorter_paths_ans>
 94c:	80 91 d9 00 	lds	r24, 0x00D9
 950:	82 30       	cpi	r24, 0x02	; 2
 952:	a9 f4       	brne	.+42     	; 0x97e <main+0x27c>
 954:	80 91 da 00 	lds	r24, 0x00DA
 958:	81 30       	cpi	r24, 0x01	; 1
 95a:	89 f4       	brne	.+34     	; 0x97e <main+0x27c>
 95c:	80 91 db 00 	lds	r24, 0x00DB
 960:	81 30       	cpi	r24, 0x01	; 1
 962:	69 f4       	brne	.+26     	; 0x97e <main+0x27c>
 964:	80 91 dc 00 	lds	r24, 0x00DC
 968:	88 3b       	cpi	r24, 0xB8	; 184
 96a:	49 f4       	brne	.+18     	; 0x97e <main+0x27c>
 96c:	80 91 dd 00 	lds	r24, 0x00DD
 970:	83 30       	cpi	r24, 0x03	; 3
 972:	29 f4       	brne	.+10     	; 0x97e <main+0x27c>
 974:	80 91 de 00 	lds	r24, 0x00DE
 978:	81 34       	cpi	r24, 0x41	; 65
 97a:	09 f4       	brne	.+2      	; 0x97e <main+0x27c>
 97c:	d0 dd       	rcall	.-1120   	; 0x51e <Request_coin_id_ans_v3>
 97e:	80 91 d9 00 	lds	r24, 0x00D9
 982:	82 30       	cpi	r24, 0x02	; 2
 984:	a9 f4       	brne	.+42     	; 0x9b0 <main+0x2ae>
 986:	80 91 da 00 	lds	r24, 0x00DA
 98a:	81 30       	cpi	r24, 0x01	; 1
 98c:	89 f4       	brne	.+34     	; 0x9b0 <main+0x2ae>
 98e:	80 91 db 00 	lds	r24, 0x00DB
 992:	81 30       	cpi	r24, 0x01	; 1
 994:	69 f4       	brne	.+26     	; 0x9b0 <main+0x2ae>
 996:	80 91 dc 00 	lds	r24, 0x00DC
 99a:	81 3d       	cpi	r24, 0xD1	; 209
 99c:	49 f4       	brne	.+18     	; 0x9b0 <main+0x2ae>
 99e:	80 91 dd 00 	lds	r24, 0x00DD
 9a2:	83 30       	cpi	r24, 0x03	; 3
 9a4:	29 f4       	brne	.+10     	; 0x9b0 <main+0x2ae>
 9a6:	80 91 de 00 	lds	r24, 0x00DE
 9aa:	88 32       	cpi	r24, 0x28	; 40
 9ac:	09 f4       	brne	.+2      	; 0x9b0 <main+0x2ae>
 9ae:	f7 dd       	rcall	.-1042   	; 0x59e <Request_sorter_paths_ans>
 9b0:	80 91 d9 00 	lds	r24, 0x00D9
 9b4:	82 30       	cpi	r24, 0x02	; 2
 9b6:	a9 f4       	brne	.+42     	; 0x9e2 <main+0x2e0>
 9b8:	80 91 da 00 	lds	r24, 0x00DA
 9bc:	81 30       	cpi	r24, 0x01	; 1
 9be:	89 f4       	brne	.+34     	; 0x9e2 <main+0x2e0>
 9c0:	80 91 db 00 	lds	r24, 0x00DB
 9c4:	81 30       	cpi	r24, 0x01	; 1
 9c6:	69 f4       	brne	.+26     	; 0x9e2 <main+0x2e0>
 9c8:	80 91 dc 00 	lds	r24, 0x00DC
 9cc:	88 3b       	cpi	r24, 0xB8	; 184
 9ce:	49 f4       	brne	.+18     	; 0x9e2 <main+0x2e0>
 9d0:	80 91 dd 00 	lds	r24, 0x00DD
 9d4:	84 30       	cpi	r24, 0x04	; 4
 9d6:	29 f4       	brne	.+10     	; 0x9e2 <main+0x2e0>
 9d8:	80 91 de 00 	lds	r24, 0x00DE
 9dc:	80 34       	cpi	r24, 0x40	; 64
 9de:	09 f4       	brne	.+2      	; 0x9e2 <main+0x2e0>
 9e0:	7e dd       	rcall	.-1284   	; 0x4de <Request_coin_id_ans_v4>
 9e2:	80 91 d9 00 	lds	r24, 0x00D9
 9e6:	82 30       	cpi	r24, 0x02	; 2
 9e8:	a9 f4       	brne	.+42     	; 0xa14 <main+0x312>
 9ea:	80 91 da 00 	lds	r24, 0x00DA
 9ee:	81 30       	cpi	r24, 0x01	; 1
 9f0:	89 f4       	brne	.+34     	; 0xa14 <main+0x312>
 9f2:	80 91 db 00 	lds	r24, 0x00DB
 9f6:	81 30       	cpi	r24, 0x01	; 1
 9f8:	69 f4       	brne	.+26     	; 0xa14 <main+0x312>
 9fa:	80 91 dc 00 	lds	r24, 0x00DC
 9fe:	81 3d       	cpi	r24, 0xD1	; 209
 a00:	49 f4       	brne	.+18     	; 0xa14 <main+0x312>
 a02:	80 91 dd 00 	lds	r24, 0x00DD
 a06:	84 30       	cpi	r24, 0x04	; 4
 a08:	29 f4       	brne	.+10     	; 0xa14 <main+0x312>
 a0a:	80 91 de 00 	lds	r24, 0x00DE
 a0e:	87 32       	cpi	r24, 0x27	; 39
 a10:	09 f4       	brne	.+2      	; 0xa14 <main+0x312>
 a12:	c5 dd       	rcall	.-1142   	; 0x59e <Request_sorter_paths_ans>
 a14:	80 91 d9 00 	lds	r24, 0x00D9
 a18:	82 30       	cpi	r24, 0x02	; 2
 a1a:	a9 f4       	brne	.+42     	; 0xa46 <main+0x344>
 a1c:	80 91 da 00 	lds	r24, 0x00DA
 a20:	81 30       	cpi	r24, 0x01	; 1
 a22:	89 f4       	brne	.+34     	; 0xa46 <main+0x344>
 a24:	80 91 db 00 	lds	r24, 0x00DB
 a28:	81 30       	cpi	r24, 0x01	; 1
 a2a:	69 f4       	brne	.+26     	; 0xa46 <main+0x344>
 a2c:	80 91 dc 00 	lds	r24, 0x00DC
 a30:	81 3d       	cpi	r24, 0xD1	; 209
 a32:	49 f4       	brne	.+18     	; 0xa46 <main+0x344>
 a34:	80 91 dd 00 	lds	r24, 0x00DD
 a38:	85 30       	cpi	r24, 0x05	; 5
 a3a:	29 f4       	brne	.+10     	; 0xa46 <main+0x344>
 a3c:	80 91 de 00 	lds	r24, 0x00DE
 a40:	86 32       	cpi	r24, 0x26	; 38
 a42:	09 f4       	brne	.+2      	; 0xa46 <main+0x344>
 a44:	ac dd       	rcall	.-1192   	; 0x59e <Request_sorter_paths_ans>
 a46:	80 91 d9 00 	lds	r24, 0x00D9
 a4a:	82 30       	cpi	r24, 0x02	; 2
 a4c:	a9 f4       	brne	.+42     	; 0xa78 <main+0x376>
 a4e:	80 91 da 00 	lds	r24, 0x00DA
 a52:	81 30       	cpi	r24, 0x01	; 1
 a54:	89 f4       	brne	.+34     	; 0xa78 <main+0x376>
 a56:	80 91 db 00 	lds	r24, 0x00DB
 a5a:	81 30       	cpi	r24, 0x01	; 1
 a5c:	69 f4       	brne	.+26     	; 0xa78 <main+0x376>
 a5e:	80 91 dc 00 	lds	r24, 0x00DC
 a62:	81 3d       	cpi	r24, 0xD1	; 209
 a64:	49 f4       	brne	.+18     	; 0xa78 <main+0x376>
 a66:	80 91 dd 00 	lds	r24, 0x00DD
 a6a:	86 30       	cpi	r24, 0x06	; 6
 a6c:	29 f4       	brne	.+10     	; 0xa78 <main+0x376>
 a6e:	80 91 de 00 	lds	r24, 0x00DE
 a72:	85 32       	cpi	r24, 0x25	; 37
 a74:	09 f4       	brne	.+2      	; 0xa78 <main+0x376>
 a76:	93 dd       	rcall	.-1242   	; 0x59e <Request_sorter_paths_ans>
 a78:	80 91 d9 00 	lds	r24, 0x00D9
 a7c:	82 30       	cpi	r24, 0x02	; 2
 a7e:	a9 f4       	brne	.+42     	; 0xaaa <main+0x3a8>
 a80:	80 91 da 00 	lds	r24, 0x00DA
 a84:	81 30       	cpi	r24, 0x01	; 1
 a86:	89 f4       	brne	.+34     	; 0xaaa <main+0x3a8>
 a88:	80 91 db 00 	lds	r24, 0x00DB
 a8c:	81 30       	cpi	r24, 0x01	; 1
 a8e:	69 f4       	brne	.+26     	; 0xaaa <main+0x3a8>
 a90:	80 91 dc 00 	lds	r24, 0x00DC
 a94:	88 3b       	cpi	r24, 0xB8	; 184
 a96:	49 f4       	brne	.+18     	; 0xaaa <main+0x3a8>
 a98:	80 91 dd 00 	lds	r24, 0x00DD
 a9c:	84 30       	cpi	r24, 0x04	; 4
 a9e:	29 f4       	brne	.+10     	; 0xaaa <main+0x3a8>
 aa0:	80 91 de 00 	lds	r24, 0x00DE
 aa4:	80 34       	cpi	r24, 0x40	; 64
 aa6:	09 f4       	brne	.+2      	; 0xaaa <main+0x3a8>
 aa8:	1a dd       	rcall	.-1484   	; 0x4de <Request_coin_id_ans_v4>
 aaa:	80 91 d9 00 	lds	r24, 0x00D9
 aae:	82 30       	cpi	r24, 0x02	; 2
 ab0:	a9 f4       	brne	.+42     	; 0xadc <main+0x3da>
 ab2:	80 91 da 00 	lds	r24, 0x00DA
 ab6:	81 30       	cpi	r24, 0x01	; 1
 ab8:	89 f4       	brne	.+34     	; 0xadc <main+0x3da>
 aba:	80 91 db 00 	lds	r24, 0x00DB
 abe:	81 30       	cpi	r24, 0x01	; 1
 ac0:	69 f4       	brne	.+26     	; 0xadc <main+0x3da>
 ac2:	80 91 dc 00 	lds	r24, 0x00DC
 ac6:	88 3b       	cpi	r24, 0xB8	; 184
 ac8:	49 f4       	brne	.+18     	; 0xadc <main+0x3da>
 aca:	80 91 dd 00 	lds	r24, 0x00DD
 ace:	85 30       	cpi	r24, 0x05	; 5
 ad0:	29 f4       	brne	.+10     	; 0xadc <main+0x3da>
 ad2:	80 91 de 00 	lds	r24, 0x00DE
 ad6:	8f 33       	cpi	r24, 0x3F	; 63
 ad8:	09 f4       	brne	.+2      	; 0xadc <main+0x3da>
 ada:	e1 dc       	rcall	.-1598   	; 0x49e <Request_coin_id_ans_v5>
 adc:	80 91 d9 00 	lds	r24, 0x00D9
 ae0:	82 30       	cpi	r24, 0x02	; 2
 ae2:	a9 f4       	brne	.+42     	; 0xb0e <main+0x40c>
 ae4:	80 91 da 00 	lds	r24, 0x00DA
 ae8:	81 30       	cpi	r24, 0x01	; 1
 aea:	89 f4       	brne	.+34     	; 0xb0e <main+0x40c>
 aec:	80 91 db 00 	lds	r24, 0x00DB
 af0:	81 30       	cpi	r24, 0x01	; 1
 af2:	69 f4       	brne	.+26     	; 0xb0e <main+0x40c>
 af4:	80 91 dc 00 	lds	r24, 0x00DC
 af8:	88 3b       	cpi	r24, 0xB8	; 184
 afa:	49 f4       	brne	.+18     	; 0xb0e <main+0x40c>
 afc:	80 91 dd 00 	lds	r24, 0x00DD
 b00:	86 30       	cpi	r24, 0x06	; 6
 b02:	29 f4       	brne	.+10     	; 0xb0e <main+0x40c>
 b04:	80 91 de 00 	lds	r24, 0x00DE
 b08:	8e 33       	cpi	r24, 0x3E	; 62
 b0a:	09 f4       	brne	.+2      	; 0xb0e <main+0x40c>
 b0c:	a8 dc       	rcall	.-1712   	; 0x45e <Request_coin_id_ans_v6>
 b0e:	80 91 d9 00 	lds	r24, 0x00D9
 b12:	82 30       	cpi	r24, 0x02	; 2
 b14:	a9 f4       	brne	.+42     	; 0xb40 <main+0x43e>
 b16:	80 91 da 00 	lds	r24, 0x00DA
 b1a:	81 30       	cpi	r24, 0x01	; 1
 b1c:	89 f4       	brne	.+34     	; 0xb40 <main+0x43e>
 b1e:	80 91 db 00 	lds	r24, 0x00DB
 b22:	81 30       	cpi	r24, 0x01	; 1
 b24:	69 f4       	brne	.+26     	; 0xb40 <main+0x43e>
 b26:	80 91 dc 00 	lds	r24, 0x00DC
 b2a:	88 3b       	cpi	r24, 0xB8	; 184
 b2c:	49 f4       	brne	.+18     	; 0xb40 <main+0x43e>
 b2e:	80 91 dd 00 	lds	r24, 0x00DD
 b32:	87 30       	cpi	r24, 0x07	; 7
 b34:	29 f4       	brne	.+10     	; 0xb40 <main+0x43e>
 b36:	80 91 de 00 	lds	r24, 0x00DE
 b3a:	8d 33       	cpi	r24, 0x3D	; 61
 b3c:	09 f4       	brne	.+2      	; 0xb40 <main+0x43e>
 b3e:	6f dc       	rcall	.-1826   	; 0x41e <Request_coin_id_ans_v7>
 b40:	80 91 d9 00 	lds	r24, 0x00D9
 b44:	82 30       	cpi	r24, 0x02	; 2
 b46:	a9 f4       	brne	.+42     	; 0xb72 <main+0x470>
 b48:	80 91 da 00 	lds	r24, 0x00DA
 b4c:	81 30       	cpi	r24, 0x01	; 1
 b4e:	89 f4       	brne	.+34     	; 0xb72 <main+0x470>
 b50:	80 91 db 00 	lds	r24, 0x00DB
 b54:	81 30       	cpi	r24, 0x01	; 1
 b56:	69 f4       	brne	.+26     	; 0xb72 <main+0x470>
 b58:	80 91 dc 00 	lds	r24, 0x00DC
 b5c:	88 3b       	cpi	r24, 0xB8	; 184
 b5e:	49 f4       	brne	.+18     	; 0xb72 <main+0x470>
 b60:	80 91 dd 00 	lds	r24, 0x00DD
 b64:	88 30       	cpi	r24, 0x08	; 8
 b66:	29 f4       	brne	.+10     	; 0xb72 <main+0x470>
 b68:	80 91 de 00 	lds	r24, 0x00DE
 b6c:	8c 33       	cpi	r24, 0x3C	; 60
 b6e:	09 f4       	brne	.+2      	; 0xb72 <main+0x470>
 b70:	36 dc       	rcall	.-1940   	; 0x3de <Request_coin_id_ans_v8>
 b72:	80 91 d9 00 	lds	r24, 0x00D9
 b76:	82 30       	cpi	r24, 0x02	; 2
 b78:	a9 f4       	brne	.+42     	; 0xba4 <main+0x4a2>
 b7a:	80 91 da 00 	lds	r24, 0x00DA
 b7e:	81 30       	cpi	r24, 0x01	; 1
 b80:	89 f4       	brne	.+34     	; 0xba4 <main+0x4a2>
 b82:	80 91 db 00 	lds	r24, 0x00DB
 b86:	81 30       	cpi	r24, 0x01	; 1
 b88:	69 f4       	brne	.+26     	; 0xba4 <main+0x4a2>
 b8a:	80 91 dc 00 	lds	r24, 0x00DC
 b8e:	88 3b       	cpi	r24, 0xB8	; 184
 b90:	49 f4       	brne	.+18     	; 0xba4 <main+0x4a2>
 b92:	80 91 dd 00 	lds	r24, 0x00DD
 b96:	89 30       	cpi	r24, 0x09	; 9
 b98:	29 f4       	brne	.+10     	; 0xba4 <main+0x4a2>
 b9a:	80 91 de 00 	lds	r24, 0x00DE
 b9e:	8b 33       	cpi	r24, 0x3B	; 59
 ba0:	09 f4       	brne	.+2      	; 0xba4 <main+0x4a2>
 ba2:	fd db       	rcall	.-2054   	; 0x39e <Request_coin_id_ans_v9>
 ba4:	80 91 d9 00 	lds	r24, 0x00D9
 ba8:	82 30       	cpi	r24, 0x02	; 2
 baa:	a9 f4       	brne	.+42     	; 0xbd6 <main+0x4d4>
 bac:	80 91 da 00 	lds	r24, 0x00DA
 bb0:	81 30       	cpi	r24, 0x01	; 1
 bb2:	89 f4       	brne	.+34     	; 0xbd6 <main+0x4d4>
 bb4:	80 91 db 00 	lds	r24, 0x00DB
 bb8:	81 30       	cpi	r24, 0x01	; 1
 bba:	69 f4       	brne	.+26     	; 0xbd6 <main+0x4d4>
 bbc:	80 91 dc 00 	lds	r24, 0x00DC
 bc0:	88 3b       	cpi	r24, 0xB8	; 184
 bc2:	49 f4       	brne	.+18     	; 0xbd6 <main+0x4d4>
 bc4:	80 91 dd 00 	lds	r24, 0x00DD
 bc8:	8a 30       	cpi	r24, 0x0A	; 10
 bca:	29 f4       	brne	.+10     	; 0xbd6 <main+0x4d4>
 bcc:	80 91 de 00 	lds	r24, 0x00DE
 bd0:	8a 33       	cpi	r24, 0x3A	; 58
 bd2:	09 f4       	brne	.+2      	; 0xbd6 <main+0x4d4>
 bd4:	c4 db       	rcall	.-2168   	; 0x35e <Request_coin_id_ans_v10>
 bd6:	80 91 d9 00 	lds	r24, 0x00D9
 bda:	82 30       	cpi	r24, 0x02	; 2
 bdc:	a9 f4       	brne	.+42     	; 0xc08 <main+0x506>
 bde:	80 91 da 00 	lds	r24, 0x00DA
 be2:	81 30       	cpi	r24, 0x01	; 1
 be4:	89 f4       	brne	.+34     	; 0xc08 <main+0x506>
 be6:	80 91 db 00 	lds	r24, 0x00DB
 bea:	81 30       	cpi	r24, 0x01	; 1
 bec:	69 f4       	brne	.+26     	; 0xc08 <main+0x506>
 bee:	80 91 dc 00 	lds	r24, 0x00DC
 bf2:	88 3b       	cpi	r24, 0xB8	; 184
 bf4:	49 f4       	brne	.+18     	; 0xc08 <main+0x506>
 bf6:	80 91 dd 00 	lds	r24, 0x00DD
 bfa:	8b 30       	cpi	r24, 0x0B	; 11
 bfc:	29 f4       	brne	.+10     	; 0xc08 <main+0x506>
 bfe:	80 91 de 00 	lds	r24, 0x00DE
 c02:	89 33       	cpi	r24, 0x39	; 57
 c04:	09 f4       	brne	.+2      	; 0xc08 <main+0x506>
 c06:	8b db       	rcall	.-2282   	; 0x31e <Request_coin_id_ans_v11>
 c08:	80 91 d9 00 	lds	r24, 0x00D9
 c0c:	82 30       	cpi	r24, 0x02	; 2
 c0e:	a9 f4       	brne	.+42     	; 0xc3a <main+0x538>
 c10:	80 91 da 00 	lds	r24, 0x00DA
 c14:	81 30       	cpi	r24, 0x01	; 1
 c16:	89 f4       	brne	.+34     	; 0xc3a <main+0x538>
 c18:	80 91 db 00 	lds	r24, 0x00DB
 c1c:	81 30       	cpi	r24, 0x01	; 1
 c1e:	69 f4       	brne	.+26     	; 0xc3a <main+0x538>
 c20:	80 91 dc 00 	lds	r24, 0x00DC
 c24:	88 3b       	cpi	r24, 0xB8	; 184
 c26:	49 f4       	brne	.+18     	; 0xc3a <main+0x538>
 c28:	80 91 dd 00 	lds	r24, 0x00DD
 c2c:	8c 30       	cpi	r24, 0x0C	; 12
 c2e:	29 f4       	brne	.+10     	; 0xc3a <main+0x538>
 c30:	80 91 de 00 	lds	r24, 0x00DE
 c34:	88 33       	cpi	r24, 0x38	; 56
 c36:	09 f4       	brne	.+2      	; 0xc3a <main+0x538>
 c38:	52 db       	rcall	.-2396   	; 0x2de <Request_coin_id_ans_v12>
 c3a:	80 91 d9 00 	lds	r24, 0x00D9
 c3e:	82 30       	cpi	r24, 0x02	; 2
 c40:	a9 f4       	brne	.+42     	; 0xc6c <main+0x56a>
 c42:	80 91 da 00 	lds	r24, 0x00DA
 c46:	81 30       	cpi	r24, 0x01	; 1
 c48:	89 f4       	brne	.+34     	; 0xc6c <main+0x56a>
 c4a:	80 91 db 00 	lds	r24, 0x00DB
 c4e:	81 30       	cpi	r24, 0x01	; 1
 c50:	69 f4       	brne	.+26     	; 0xc6c <main+0x56a>
 c52:	80 91 dc 00 	lds	r24, 0x00DC
 c56:	88 3b       	cpi	r24, 0xB8	; 184
 c58:	49 f4       	brne	.+18     	; 0xc6c <main+0x56a>
 c5a:	80 91 dd 00 	lds	r24, 0x00DD
 c5e:	8d 30       	cpi	r24, 0x0D	; 13
 c60:	29 f4       	brne	.+10     	; 0xc6c <main+0x56a>
 c62:	80 91 de 00 	lds	r24, 0x00DE
 c66:	87 33       	cpi	r24, 0x37	; 55
 c68:	09 f4       	brne	.+2      	; 0xc6c <main+0x56a>
 c6a:	19 db       	rcall	.-2510   	; 0x29e <Request_coin_id_ans_v13>
 c6c:	80 91 d9 00 	lds	r24, 0x00D9
 c70:	82 30       	cpi	r24, 0x02	; 2
 c72:	a9 f4       	brne	.+42     	; 0xc9e <main+0x59c>
 c74:	80 91 da 00 	lds	r24, 0x00DA
 c78:	81 30       	cpi	r24, 0x01	; 1
 c7a:	89 f4       	brne	.+34     	; 0xc9e <main+0x59c>
 c7c:	80 91 db 00 	lds	r24, 0x00DB
 c80:	81 30       	cpi	r24, 0x01	; 1
 c82:	69 f4       	brne	.+26     	; 0xc9e <main+0x59c>
 c84:	80 91 dc 00 	lds	r24, 0x00DC
 c88:	88 3b       	cpi	r24, 0xB8	; 184
 c8a:	49 f4       	brne	.+18     	; 0xc9e <main+0x59c>
 c8c:	80 91 dd 00 	lds	r24, 0x00DD
 c90:	8e 30       	cpi	r24, 0x0E	; 14
 c92:	29 f4       	brne	.+10     	; 0xc9e <main+0x59c>
 c94:	80 91 de 00 	lds	r24, 0x00DE
 c98:	86 33       	cpi	r24, 0x36	; 54
 c9a:	09 f4       	brne	.+2      	; 0xc9e <main+0x59c>
 c9c:	e0 da       	rcall	.-2624   	; 0x25e <Request_coin_id_ans_v14>
 c9e:	80 91 d9 00 	lds	r24, 0x00D9
 ca2:	82 30       	cpi	r24, 0x02	; 2
 ca4:	a9 f4       	brne	.+42     	; 0xcd0 <main+0x5ce>
 ca6:	80 91 da 00 	lds	r24, 0x00DA
 caa:	81 30       	cpi	r24, 0x01	; 1
 cac:	89 f4       	brne	.+34     	; 0xcd0 <main+0x5ce>
 cae:	80 91 db 00 	lds	r24, 0x00DB
 cb2:	81 30       	cpi	r24, 0x01	; 1
 cb4:	69 f4       	brne	.+26     	; 0xcd0 <main+0x5ce>
 cb6:	80 91 dc 00 	lds	r24, 0x00DC
 cba:	88 3b       	cpi	r24, 0xB8	; 184
 cbc:	49 f4       	brne	.+18     	; 0xcd0 <main+0x5ce>
 cbe:	80 91 dd 00 	lds	r24, 0x00DD
 cc2:	8f 30       	cpi	r24, 0x0F	; 15
 cc4:	29 f4       	brne	.+10     	; 0xcd0 <main+0x5ce>
 cc6:	80 91 de 00 	lds	r24, 0x00DE
 cca:	85 33       	cpi	r24, 0x35	; 53
 ccc:	09 f4       	brne	.+2      	; 0xcd0 <main+0x5ce>
 cce:	a7 da       	rcall	.-2738   	; 0x21e <Request_coin_id_ans_v15>
 cd0:	80 91 d9 00 	lds	r24, 0x00D9
 cd4:	82 30       	cpi	r24, 0x02	; 2
 cd6:	a9 f4       	brne	.+42     	; 0xd02 <main+0x600>
 cd8:	80 91 da 00 	lds	r24, 0x00DA
 cdc:	81 30       	cpi	r24, 0x01	; 1
 cde:	89 f4       	brne	.+34     	; 0xd02 <main+0x600>
 ce0:	80 91 db 00 	lds	r24, 0x00DB
 ce4:	81 30       	cpi	r24, 0x01	; 1
 ce6:	69 f4       	brne	.+26     	; 0xd02 <main+0x600>
 ce8:	80 91 dc 00 	lds	r24, 0x00DC
 cec:	88 3b       	cpi	r24, 0xB8	; 184
 cee:	49 f4       	brne	.+18     	; 0xd02 <main+0x600>
 cf0:	80 91 dd 00 	lds	r24, 0x00DD
 cf4:	80 31       	cpi	r24, 0x10	; 16
 cf6:	29 f4       	brne	.+10     	; 0xd02 <main+0x600>
 cf8:	80 91 de 00 	lds	r24, 0x00DE
 cfc:	84 33       	cpi	r24, 0x34	; 52
 cfe:	09 f4       	brne	.+2      	; 0xd02 <main+0x600>
 d00:	6e da       	rcall	.-2852   	; 0x1de <Request_coin_id_ans_v16>
 d02:	80 91 d9 00 	lds	r24, 0x00D9
 d06:	82 30       	cpi	r24, 0x02	; 2
 d08:	a9 f4       	brne	.+42     	; 0xd34 <main+0x632>
 d0a:	80 91 da 00 	lds	r24, 0x00DA
 d0e:	81 30       	cpi	r24, 0x01	; 1
 d10:	89 f4       	brne	.+34     	; 0xd34 <main+0x632>
 d12:	80 91 db 00 	lds	r24, 0x00DB
 d16:	81 30       	cpi	r24, 0x01	; 1
 d18:	69 f4       	brne	.+26     	; 0xd34 <main+0x632>
 d1a:	80 91 dc 00 	lds	r24, 0x00DC
 d1e:	8e 3d       	cpi	r24, 0xDE	; 222
 d20:	49 f4       	brne	.+18     	; 0xd34 <main+0x632>
 d22:	80 91 dd 00 	lds	r24, 0x00DD
 d26:	8f 3f       	cpi	r24, 0xFF	; 255
 d28:	29 f4       	brne	.+10     	; 0xd34 <main+0x632>
 d2a:	80 91 de 00 	lds	r24, 0x00DE
 d2e:	8f 31       	cpi	r24, 0x1F	; 31
 d30:	09 f4       	brne	.+2      	; 0xd34 <main+0x632>
 d32:	a9 dc       	rcall	.-1710   	; 0x686 <Reset_device_ans>
 d34:	80 91 d9 00 	lds	r24, 0x00D9
 d38:	82 30       	cpi	r24, 0x02	; 2
 d3a:	89 f4       	brne	.+34     	; 0xd5e <main+0x65c>
 d3c:	80 91 da 00 	lds	r24, 0x00DA
 d40:	81 30       	cpi	r24, 0x01	; 1
 d42:	69 f4       	brne	.+26     	; 0xd5e <main+0x65c>
 d44:	80 91 db 00 	lds	r24, 0x00DB
 d48:	81 30       	cpi	r24, 0x01	; 1
 d4a:	49 f4       	brne	.+18     	; 0xd5e <main+0x65c>
 d4c:	80 91 dc 00 	lds	r24, 0x00DC
 d50:	8e 3d       	cpi	r24, 0xDE	; 222
 d52:	29 f4       	brne	.+10     	; 0xd5e <main+0x65c>
 d54:	80 91 dd 00 	lds	r24, 0x00DD
 d58:	88 23       	and	r24, r24
 d5a:	09 f4       	brne	.+2      	; 0xd5e <main+0x65c>
 d5c:	94 dc       	rcall	.-1752   	; 0x686 <Reset_device_ans>
 d5e:	80 91 d9 00 	lds	r24, 0x00D9
 d62:	82 30       	cpi	r24, 0x02	; 2
 d64:	89 f4       	brne	.+34     	; 0xd88 <main+0x686>
 d66:	80 91 da 00 	lds	r24, 0x00DA
 d6a:	88 23       	and	r24, r24
 d6c:	69 f4       	brne	.+26     	; 0xd88 <main+0x686>
 d6e:	80 91 db 00 	lds	r24, 0x00DB
 d72:	81 30       	cpi	r24, 0x01	; 1
 d74:	49 f4       	brne	.+18     	; 0xd88 <main+0x686>
 d76:	80 91 dc 00 	lds	r24, 0x00DC
 d7a:	85 3e       	cpi	r24, 0xE5	; 229
 d7c:	29 f4       	brne	.+10     	; 0xd88 <main+0x686>
 d7e:	80 91 dd 00 	lds	r24, 0x00DD
 d82:	88 31       	cpi	r24, 0x18	; 24
 d84:	09 f4       	brne	.+2      	; 0xd88 <main+0x686>
 d86:	f0 d9       	rcall	.-3104   	; 0x168 <Read_buffor_credit_ans>
 d88:	80 91 d9 00 	lds	r24, 0x00D9
 d8c:	82 30       	cpi	r24, 0x02	; 2
 d8e:	e1 f4       	brne	.+56     	; 0xdc8 <main+0x6c6>
 d90:	80 91 da 00 	lds	r24, 0x00DA
 d94:	82 30       	cpi	r24, 0x02	; 2
 d96:	c1 f4       	brne	.+48     	; 0xdc8 <main+0x6c6>
 d98:	00 91 db 00 	lds	r16, 0x00DB
 d9c:	01 30       	cpi	r16, 0x01	; 1
 d9e:	a1 f4       	brne	.+40     	; 0xdc8 <main+0x6c6>
 da0:	80 91 dc 00 	lds	r24, 0x00DC
 da4:	87 3e       	cpi	r24, 0xE7	; 231
 da6:	81 f4       	brne	.+32     	; 0xdc8 <main+0x6c6>
 da8:	80 91 dd 00 	lds	r24, 0x00DD
 dac:	88 23       	and	r24, r24
 dae:	61 f4       	brne	.+24     	; 0xdc8 <main+0x6c6>
 db0:	80 91 de 00 	lds	r24, 0x00DE
 db4:	88 23       	and	r24, r24
 db6:	41 f4       	brne	.+16     	; 0xdc8 <main+0x6c6>
 db8:	80 91 df 00 	lds	r24, 0x00DF
 dbc:	84 31       	cpi	r24, 0x14	; 20
 dbe:	21 f4       	brne	.+8      	; 0xdc8 <main+0x6c6>
 dc0:	62 dc       	rcall	.-1852   	; 0x686 <Reset_device_ans>
 dc2:	00 93 60 00 	sts	0x0060, r16
 dc6:	a9 d9       	rcall	.-3246   	; 0x11a <Set_inhibit>
 dc8:	80 91 d9 00 	lds	r24, 0x00D9
 dcc:	82 30       	cpi	r24, 0x02	; 2
 dce:	d9 f4       	brne	.+54     	; 0xe06 <main+0x704>
 dd0:	80 91 da 00 	lds	r24, 0x00DA
 dd4:	82 30       	cpi	r24, 0x02	; 2
 dd6:	b9 f4       	brne	.+46     	; 0xe06 <main+0x704>
 dd8:	80 91 db 00 	lds	r24, 0x00DB
 ddc:	81 30       	cpi	r24, 0x01	; 1
 dde:	99 f4       	brne	.+38     	; 0xe06 <main+0x704>
 de0:	80 91 dc 00 	lds	r24, 0x00DC
 de4:	87 3e       	cpi	r24, 0xE7	; 231
 de6:	79 f4       	brne	.+30     	; 0xe06 <main+0x704>
 de8:	80 91 dd 00 	lds	r24, 0x00DD
 dec:	80 32       	cpi	r24, 0x20	; 32
 dee:	59 f4       	brne	.+22     	; 0xe06 <main+0x704>
 df0:	80 91 de 00 	lds	r24, 0x00DE
 df4:	88 23       	and	r24, r24
 df6:	39 f4       	brne	.+14     	; 0xe06 <main+0x704>
 df8:	80 91 df 00 	lds	r24, 0x00DF
 dfc:	84 3f       	cpi	r24, 0xF4	; 244
 dfe:	19 f4       	brne	.+6      	; 0xe06 <main+0x704>
 e00:	42 dc       	rcall	.-1916   	; 0x686 <Reset_device_ans>
 e02:	10 92 60 00 	sts	0x0060, r1
 e06:	89 d9       	rcall	.-3310   	; 0x11a <Set_inhibit>
 e08:	90 d9       	rcall	.-3296   	; 0x12a <check_is_money>
 e0a:	01 c0       	rjmp	.+2      	; 0xe0e <main+0x70c>
 e0c:	8c b1       	in	r24, 0x0c	; 12
 e0e:	5f 99       	sbic	0x0b, 7	; 11
 e10:	fd cf       	rjmp	.-6      	; 0xe0c <main+0x70a>
 e12:	af cc       	rjmp	.-1698   	; 0x772 <main+0x70>
 e14:	fc 01       	movw	r30, r24
 e16:	e7 52       	subi	r30, 0x27	; 39
 e18:	ff 4f       	sbci	r31, 0xFF	; 255
 e1a:	10 82       	st	Z, r1
 e1c:	01 96       	adiw	r24, 0x01	; 1
 e1e:	88 32       	cpi	r24, 0x28	; 40
 e20:	91 05       	cpc	r25, r1
 e22:	09 f4       	brne	.+2      	; 0xe26 <main+0x724>
 e24:	93 cc       	rjmp	.-1754   	; 0x74c <main+0x4a>
 e26:	f6 cf       	rjmp	.-20     	; 0xe14 <main+0x712>

00000e28 <_exit>:
 e28:	f8 94       	cli

00000e2a <__stop_program>:
 e2a:	ff cf       	rjmp	.-2      	; 0xe2a <__stop_program>
