
rozmieniarka.elf:     file format elf32-avr

Sections:
Idx Name          Size      VMA       LMA       File off  Algn
  0 .text         0000064c  00000000  00000000  00000074  2**1
                  CONTENTS, ALLOC, LOAD, READONLY, CODE
  1 .bss          00000016  00800060  00800060  000006c0  2**0
                  ALLOC

Disassembly of section .text:

00000000 <__vectors>:
   0:	12 c0       	rjmp	.+36     	; 0x26 <__ctors_end>
   2:	21 c0       	rjmp	.+66     	; 0x46 <__bad_interrupt>
   4:	20 c0       	rjmp	.+64     	; 0x46 <__bad_interrupt>
   6:	1f c0       	rjmp	.+62     	; 0x46 <__bad_interrupt>
   8:	1e c0       	rjmp	.+60     	; 0x46 <__bad_interrupt>
   a:	1d c0       	rjmp	.+58     	; 0x46 <__bad_interrupt>
   c:	1c c0       	rjmp	.+56     	; 0x46 <__bad_interrupt>
   e:	1b c0       	rjmp	.+54     	; 0x46 <__bad_interrupt>
  10:	1a c0       	rjmp	.+52     	; 0x46 <__bad_interrupt>
  12:	94 c0       	rjmp	.+296    	; 0x13c <__vector_9>
  14:	18 c0       	rjmp	.+48     	; 0x46 <__bad_interrupt>
  16:	17 c0       	rjmp	.+46     	; 0x46 <__bad_interrupt>
  18:	16 c0       	rjmp	.+44     	; 0x46 <__bad_interrupt>
  1a:	15 c0       	rjmp	.+42     	; 0x46 <__bad_interrupt>
  1c:	14 c0       	rjmp	.+40     	; 0x46 <__bad_interrupt>
  1e:	13 c0       	rjmp	.+38     	; 0x46 <__bad_interrupt>
  20:	12 c0       	rjmp	.+36     	; 0x46 <__bad_interrupt>
  22:	11 c0       	rjmp	.+34     	; 0x46 <__bad_interrupt>
  24:	10 c0       	rjmp	.+32     	; 0x46 <__bad_interrupt>

00000026 <__ctors_end>:
  26:	11 24       	eor	r1, r1
  28:	1f be       	out	0x3f, r1	; 63
  2a:	cf e5       	ldi	r28, 0x5F	; 95
  2c:	d4 e0       	ldi	r29, 0x04	; 4
  2e:	de bf       	out	0x3e, r29	; 62
  30:	cd bf       	out	0x3d, r28	; 61

00000032 <__do_clear_bss>:
  32:	10 e0       	ldi	r17, 0x00	; 0
  34:	a0 e6       	ldi	r26, 0x60	; 96
  36:	b0 e0       	ldi	r27, 0x00	; 0
  38:	01 c0       	rjmp	.+2      	; 0x3c <.do_clear_bss_start>

0000003a <.do_clear_bss_loop>:
  3a:	1d 92       	st	X+, r1

0000003c <.do_clear_bss_start>:
  3c:	a6 37       	cpi	r26, 0x76	; 118
  3e:	b1 07       	cpc	r27, r17
  40:	e1 f7       	brne	.-8      	; 0x3a <.do_clear_bss_loop>
  42:	d2 d2       	rcall	.+1444   	; 0x5e8 <main>
  44:	01 c3       	rjmp	.+1538   	; 0x648 <_exit>

00000046 <__bad_interrupt>:
  46:	dc cf       	rjmp	.-72     	; 0x0 <__vectors>

00000048 <operator_check>:
  48:	86 99       	sbic	0x10, 6	; 16
  4a:	0c c0       	rjmp	.+24     	; 0x64 <operator_check+0x1c>
  4c:	80 e1       	ldi	r24, 0x10	; 16
  4e:	97 e2       	ldi	r25, 0x27	; 39
  50:	29 e1       	ldi	r18, 0x19	; 25
  52:	30 e0       	ldi	r19, 0x00	; 0
  54:	f9 01       	movw	r30, r18
  56:	31 97       	sbiw	r30, 0x01	; 1
  58:	f1 f7       	brne	.-4      	; 0x56 <operator_check+0xe>
  5a:	01 97       	sbiw	r24, 0x01	; 1
  5c:	d9 f7       	brne	.-10     	; 0x54 <operator_check+0xc>
  5e:	86 9b       	sbis	0x10, 6	; 16
  60:	fe cf       	rjmp	.-4      	; 0x5e <operator_check+0x16>
  62:	90 d0       	rcall	.+288    	; 0x184 <dump_on>
  64:	08 95       	ret

00000066 <meter_out>:
  66:	97 9a       	sbi	0x12, 7	; 18
  68:	8a e3       	ldi	r24, 0x3A	; 58
  6a:	90 e2       	ldi	r25, 0x20	; 32
  6c:	01 97       	sbiw	r24, 0x01	; 1
  6e:	f1 f7       	brne	.-4      	; 0x6c <meter_out+0x6>
  70:	97 98       	cbi	0x12, 7	; 18
  72:	08 95       	ret

00000074 <meter_in>:
  74:	c7 9a       	sbi	0x18, 7	; 24
  76:	8a e3       	ldi	r24, 0x3A	; 58
  78:	90 e2       	ldi	r25, 0x20	; 32
  7a:	fc 01       	movw	r30, r24
  7c:	31 97       	sbiw	r30, 0x01	; 1
  7e:	f1 f7       	brne	.-4      	; 0x7c <meter_in+0x8>
  80:	c7 98       	cbi	0x18, 7	; 24
  82:	01 97       	sbiw	r24, 0x01	; 1
  84:	f1 f7       	brne	.-4      	; 0x82 <meter_in+0xe>
  86:	08 95       	ret

00000088 <check_ports>:
  88:	b0 9b       	sbis	0x16, 0	; 22
  8a:	15 c0       	rjmp	.+42     	; 0xb6 <check_ports+0x2e>
  8c:	98 9b       	sbis	0x13, 0	; 19
  8e:	13 c0       	rjmp	.+38     	; 0xb6 <check_ports+0x2e>
  90:	99 9b       	sbis	0x13, 1	; 19
  92:	11 c0       	rjmp	.+34     	; 0xb6 <check_ports+0x2e>
  94:	9a 9b       	sbis	0x13, 2	; 19
  96:	0f c0       	rjmp	.+30     	; 0xb6 <check_ports+0x2e>
  98:	84 9b       	sbis	0x10, 4	; 16
  9a:	0d c0       	rjmp	.+26     	; 0xb6 <check_ports+0x2e>
  9c:	80 b3       	in	r24, 0x10	; 16
  9e:	28 2f       	mov	r18, r24
  a0:	30 e0       	ldi	r19, 0x00	; 0
  a2:	86 e0       	ldi	r24, 0x06	; 6
  a4:	36 95       	lsr	r19
  a6:	27 95       	ror	r18
  a8:	8a 95       	dec	r24
  aa:	e1 f7       	brne	.-8      	; 0xa4 <check_ports+0x1c>
  ac:	20 95       	com	r18
  ae:	30 95       	com	r19
  b0:	21 70       	andi	r18, 0x01	; 1
  b2:	30 70       	andi	r19, 0x00	; 0
  b4:	02 c0       	rjmp	.+4      	; 0xba <check_ports+0x32>
  b6:	21 e0       	ldi	r18, 0x01	; 1
  b8:	30 e0       	ldi	r19, 0x00	; 0
  ba:	c9 01       	movw	r24, r18
  bc:	08 95       	ret

000000be <set_ports>:
  be:	87 b3       	in	r24, 0x17	; 23
  c0:	80 69       	ori	r24, 0x90	; 144
  c2:	87 bb       	out	0x17, r24	; 23
  c4:	88 b3       	in	r24, 0x18	; 24
  c6:	8f 76       	andi	r24, 0x6F	; 111
  c8:	88 bb       	out	0x18, r24	; 24
  ca:	c0 9a       	sbi	0x18, 0	; 24
  cc:	a3 9a       	sbi	0x14, 3	; 20
  ce:	ab 9a       	sbi	0x15, 3	; 21
  d0:	85 b3       	in	r24, 0x15	; 21
  d2:	87 60       	ori	r24, 0x07	; 7
  d4:	85 bb       	out	0x15, r24	; 21
  d6:	81 b3       	in	r24, 0x11	; 17
  d8:	80 6a       	ori	r24, 0xA0	; 160
  da:	81 bb       	out	0x11, r24	; 17
  dc:	82 b3       	in	r24, 0x12	; 18
  de:	8f 75       	andi	r24, 0x5F	; 95
  e0:	82 bb       	out	0x12, r24	; 18
  e2:	82 b3       	in	r24, 0x12	; 18
  e4:	80 65       	ori	r24, 0x50	; 80
  e6:	82 bb       	out	0x12, r24	; 18
  e8:	08 95       	ret

000000ea <init>:
  ea:	e9 df       	rcall	.-46     	; 0xbe <set_ports>
  ec:	80 e3       	ldi	r24, 0x30	; 48
  ee:	95 e7       	ldi	r25, 0x75	; 117
  f0:	29 e1       	ldi	r18, 0x19	; 25
  f2:	30 e0       	ldi	r19, 0x00	; 0
  f4:	f9 01       	movw	r30, r18
  f6:	31 97       	sbiw	r30, 0x01	; 1
  f8:	f1 f7       	brne	.-4      	; 0xf6 <init+0xc>
  fa:	01 97       	sbiw	r24, 0x01	; 1
  fc:	d9 f7       	brne	.-10     	; 0xf4 <init+0xa>
  fe:	c4 df       	rcall	.-120    	; 0x88 <check_ports>
 100:	89 2b       	or	r24, r25
 102:	09 f0       	breq	.+2      	; 0x106 <init+0x1c>
 104:	ff cf       	rjmp	.-2      	; 0x104 <init+0x1a>
 106:	07 d0       	rcall	.+14     	; 0x116 <timer0_init>
 108:	08 95       	ret

0000010a <power_on>:
 10a:	95 9a       	sbi	0x12, 5	; 18
 10c:	c4 9a       	sbi	0x18, 4	; 24
 10e:	08 95       	ret

00000110 <power_off>:
 110:	95 98       	cbi	0x12, 5	; 18
 112:	c4 98       	cbi	0x18, 4	; 24
 114:	08 95       	ret

00000116 <timer0_init>:
 116:	83 b7       	in	r24, 0x33	; 51
 118:	85 60       	ori	r24, 0x05	; 5
 11a:	83 bf       	out	0x33, r24	; 51
 11c:	12 be       	out	0x32, r1	; 50
 11e:	89 b7       	in	r24, 0x39	; 57
 120:	81 60       	ori	r24, 0x01	; 1
 122:	89 bf       	out	0x39, r24	; 57
 124:	78 94       	sei
 126:	10 92 61 00 	sts	0x0061, r1
 12a:	10 92 60 00 	sts	0x0060, r1
 12e:	08 95       	ret

00000130 <timer0_reboot>:
 130:	12 be       	out	0x32, r1	; 50
 132:	10 92 61 00 	sts	0x0061, r1
 136:	10 92 60 00 	sts	0x0060, r1
 13a:	08 95       	ret

0000013c <__vector_9>:
 13c:	1f 92       	push	r1
 13e:	0f 92       	push	r0
 140:	0f b6       	in	r0, 0x3f	; 63
 142:	0f 92       	push	r0
 144:	11 24       	eor	r1, r1
 146:	8f 93       	push	r24
 148:	9f 93       	push	r25
 14a:	80 91 60 00 	lds	r24, 0x0060
 14e:	90 91 61 00 	lds	r25, 0x0061
 152:	01 96       	adiw	r24, 0x01	; 1
 154:	90 93 61 00 	sts	0x0061, r25
 158:	80 93 60 00 	sts	0x0060, r24
 15c:	9f 91       	pop	r25
 15e:	8f 91       	pop	r24
 160:	0f 90       	pop	r0
 162:	0f be       	out	0x3f, r0	; 63
 164:	0f 90       	pop	r0
 166:	1f 90       	pop	r1
 168:	18 95       	reti

0000016a <dump_off>:
 16a:	95 98       	cbi	0x12, 5	; 18
 16c:	c4 98       	cbi	0x18, 4	; 24
 16e:	80 e1       	ldi	r24, 0x10	; 16
 170:	97 e2       	ldi	r25, 0x27	; 39
 172:	29 e1       	ldi	r18, 0x19	; 25
 174:	30 e0       	ldi	r19, 0x00	; 0
 176:	f9 01       	movw	r30, r18
 178:	31 97       	sbiw	r30, 0x01	; 1
 17a:	f1 f7       	brne	.-4      	; 0x178 <dump_off+0xe>
 17c:	01 97       	sbiw	r24, 0x01	; 1
 17e:	d9 f7       	brne	.-10     	; 0x176 <dump_off+0xc>
 180:	f2 d0       	rcall	.+484    	; 0x366 <bnc_turn_on>
 182:	08 95       	ret

00000184 <dump_on>:
 184:	f2 d0       	rcall	.+484    	; 0x36a <bnc_turn_off>
 186:	95 9a       	sbi	0x12, 5	; 18
 188:	c4 9a       	sbi	0x18, 4	; 24
 18a:	05 c0       	rjmp	.+10     	; 0x196 <dump_on+0x12>
 18c:	84 99       	sbic	0x10, 4	; 16
 18e:	03 c0       	rjmp	.+6      	; 0x196 <dump_on+0x12>
 190:	6a df       	rcall	.-300    	; 0x66 <meter_out>
 192:	84 9b       	sbis	0x10, 4	; 16
 194:	fe cf       	rjmp	.-4      	; 0x192 <dump_on+0xe>
 196:	86 9b       	sbis	0x10, 6	; 16
 198:	02 c0       	rjmp	.+4      	; 0x19e <dump_on+0x1a>
 19a:	b3 9b       	sbis	0x16, 3	; 22
 19c:	f7 cf       	rjmp	.-18     	; 0x18c <dump_on+0x8>
 19e:	86 9b       	sbis	0x10, 6	; 16
 1a0:	fe cf       	rjmp	.-4      	; 0x19e <dump_on+0x1a>
 1a2:	e3 df       	rcall	.-58     	; 0x16a <dump_off>
 1a4:	08 95       	ret

000001a6 <pay>:
 1a6:	cf 93       	push	r28
 1a8:	df 93       	push	r29
 1aa:	62 e0       	ldi	r22, 0x02	; 2
 1ac:	70 e0       	ldi	r23, 0x00	; 0
 1ae:	25 d2       	rcall	.+1098   	; 0x5fa <__divmodhi4>
 1b0:	70 93 63 00 	sts	0x0063, r23
 1b4:	60 93 62 00 	sts	0x0062, r22
 1b8:	d8 d0       	rcall	.+432    	; 0x36a <bnc_turn_off>
 1ba:	c0 e0       	ldi	r28, 0x00	; 0
 1bc:	d0 e0       	ldi	r29, 0x00	; 0
 1be:	02 c0       	rjmp	.+4      	; 0x1c4 <pay+0x1e>
 1c0:	59 df       	rcall	.-334    	; 0x74 <meter_in>
 1c2:	21 96       	adiw	r28, 0x01	; 1
 1c4:	80 91 62 00 	lds	r24, 0x0062
 1c8:	90 91 63 00 	lds	r25, 0x0063
 1cc:	c8 17       	cp	r28, r24
 1ce:	d9 07       	cpc	r29, r25
 1d0:	bc f3       	brlt	.-18     	; 0x1c0 <pay+0x1a>
 1d2:	95 9a       	sbi	0x12, 5	; 18
 1d4:	c4 9a       	sbi	0x18, 4	; 24
 1d6:	12 be       	out	0x32, r1	; 50
 1d8:	10 92 61 00 	sts	0x0061, r1
 1dc:	10 92 60 00 	sts	0x0060, r1
 1e0:	1d c0       	rjmp	.+58     	; 0x21c <pay+0x76>
 1e2:	84 99       	sbic	0x10, 4	; 16
 1e4:	12 c0       	rjmp	.+36     	; 0x20a <pay+0x64>
 1e6:	12 be       	out	0x32, r1	; 50
 1e8:	10 92 61 00 	sts	0x0061, r1
 1ec:	10 92 60 00 	sts	0x0060, r1
 1f0:	84 9b       	sbis	0x10, 4	; 16
 1f2:	fe cf       	rjmp	.-4      	; 0x1f0 <pay+0x4a>
 1f4:	80 91 62 00 	lds	r24, 0x0062
 1f8:	90 91 63 00 	lds	r25, 0x0063
 1fc:	01 97       	sbiw	r24, 0x01	; 1
 1fe:	90 93 63 00 	sts	0x0063, r25
 202:	80 93 62 00 	sts	0x0062, r24
 206:	2f df       	rcall	.-418    	; 0x66 <meter_out>
 208:	09 c0       	rjmp	.+18     	; 0x21c <pay+0x76>
 20a:	80 91 60 00 	lds	r24, 0x0060
 20e:	90 91 61 00 	lds	r25, 0x0061
 212:	86 97       	sbiw	r24, 0x26	; 38
 214:	18 f0       	brcs	.+6      	; 0x21c <pay+0x76>
 216:	95 98       	cbi	0x12, 5	; 18
 218:	c4 98       	cbi	0x18, 4	; 24
 21a:	ff cf       	rjmp	.-2      	; 0x21a <pay+0x74>
 21c:	80 91 62 00 	lds	r24, 0x0062
 220:	90 91 63 00 	lds	r25, 0x0063
 224:	18 16       	cp	r1, r24
 226:	19 06       	cpc	r1, r25
 228:	e4 f2       	brlt	.-72     	; 0x1e2 <pay+0x3c>
 22a:	95 98       	cbi	0x12, 5	; 18
 22c:	c4 98       	cbi	0x18, 4	; 24
 22e:	9b d0       	rcall	.+310    	; 0x366 <bnc_turn_on>
 230:	df 91       	pop	r29
 232:	cf 91       	pop	r28
 234:	08 95       	ret

00000236 <bnc_emp>:
 236:	af 92       	push	r10
 238:	bf 92       	push	r11
 23a:	cf 92       	push	r12
 23c:	df 92       	push	r13
 23e:	ef 92       	push	r14
 240:	ff 92       	push	r15
 242:	0f 93       	push	r16
 244:	1f 93       	push	r17
 246:	89 2b       	or	r24, r25
 248:	49 f0       	breq	.+18     	; 0x25c <bnc_emp+0x26>
 24a:	67 2b       	or	r22, r23
 24c:	81 f5       	brne	.+96     	; 0x2ae <bnc_emp+0x78>
 24e:	45 2b       	or	r20, r21
 250:	71 f5       	brne	.+92     	; 0x2ae <bnc_emp+0x78>
 252:	23 2b       	or	r18, r19
 254:	61 f5       	brne	.+88     	; 0x2ae <bnc_emp+0x78>
 256:	ef 28       	or	r14, r15
 258:	49 f0       	breq	.+18     	; 0x26c <bnc_emp+0x36>
 25a:	29 c0       	rjmp	.+82     	; 0x2ae <bnc_emp+0x78>
 25c:	67 2b       	or	r22, r23
 25e:	49 f0       	breq	.+18     	; 0x272 <bnc_emp+0x3c>
 260:	45 2b       	or	r20, r21
 262:	29 f5       	brne	.+74     	; 0x2ae <bnc_emp+0x78>
 264:	23 2b       	or	r18, r19
 266:	19 f5       	brne	.+70     	; 0x2ae <bnc_emp+0x78>
 268:	01 2b       	or	r16, r17
 26a:	09 f5       	brne	.+66     	; 0x2ae <bnc_emp+0x78>
 26c:	cd 28       	or	r12, r13
 26e:	49 f0       	breq	.+18     	; 0x282 <bnc_emp+0x4c>
 270:	1e c0       	rjmp	.+60     	; 0x2ae <bnc_emp+0x78>
 272:	45 2b       	or	r20, r21
 274:	59 f0       	breq	.+22     	; 0x28c <bnc_emp+0x56>
 276:	23 2b       	or	r18, r19
 278:	d1 f4       	brne	.+52     	; 0x2ae <bnc_emp+0x78>
 27a:	01 2b       	or	r16, r17
 27c:	c1 f4       	brne	.+48     	; 0x2ae <bnc_emp+0x78>
 27e:	ef 28       	or	r14, r15
 280:	b1 f4       	brne	.+44     	; 0x2ae <bnc_emp+0x78>
 282:	80 e0       	ldi	r24, 0x00	; 0
 284:	90 e0       	ldi	r25, 0x00	; 0
 286:	ab 28       	or	r10, r11
 288:	81 f0       	breq	.+32     	; 0x2aa <bnc_emp+0x74>
 28a:	0d c0       	rjmp	.+26     	; 0x2a6 <bnc_emp+0x70>
 28c:	23 2b       	or	r18, r19
 28e:	19 f4       	brne	.+6      	; 0x296 <bnc_emp+0x60>
 290:	20 e0       	ldi	r18, 0x00	; 0
 292:	30 e0       	ldi	r19, 0x00	; 0
 294:	0e c0       	rjmp	.+28     	; 0x2b2 <bnc_emp+0x7c>
 296:	01 2b       	or	r16, r17
 298:	51 f4       	brne	.+20     	; 0x2ae <bnc_emp+0x78>
 29a:	ef 28       	or	r14, r15
 29c:	41 f4       	brne	.+16     	; 0x2ae <bnc_emp+0x78>
 29e:	80 e0       	ldi	r24, 0x00	; 0
 2a0:	90 e0       	ldi	r25, 0x00	; 0
 2a2:	cd 28       	or	r12, r13
 2a4:	11 f0       	breq	.+4      	; 0x2aa <bnc_emp+0x74>
 2a6:	81 e0       	ldi	r24, 0x01	; 1
 2a8:	90 e0       	ldi	r25, 0x00	; 0
 2aa:	9c 01       	movw	r18, r24
 2ac:	02 c0       	rjmp	.+4      	; 0x2b2 <bnc_emp+0x7c>
 2ae:	21 e0       	ldi	r18, 0x01	; 1
 2b0:	30 e0       	ldi	r19, 0x00	; 0
 2b2:	c9 01       	movw	r24, r18
 2b4:	1f 91       	pop	r17
 2b6:	0f 91       	pop	r16
 2b8:	ff 90       	pop	r15
 2ba:	ef 90       	pop	r14
 2bc:	df 90       	pop	r13
 2be:	cf 90       	pop	r12
 2c0:	bf 90       	pop	r11
 2c2:	af 90       	pop	r10
 2c4:	08 95       	ret

000002c6 <bnc_emp_pulse_time>:
 2c6:	af 92       	push	r10
 2c8:	bf 92       	push	r11
 2ca:	cf 92       	push	r12
 2cc:	df 92       	push	r13
 2ce:	ef 92       	push	r14
 2d0:	ff 92       	push	r15
 2d2:	0f 93       	push	r16
 2d4:	1f 93       	push	r17
 2d6:	89 2b       	or	r24, r25
 2d8:	59 f0       	breq	.+22     	; 0x2f0 <bnc_emp_pulse_time+0x2a>
 2da:	01 2b       	or	r16, r17
 2dc:	c1 f5       	brne	.+112    	; 0x34e <bnc_emp_pulse_time+0x88>
 2de:	67 2b       	or	r22, r23
 2e0:	b1 f5       	brne	.+108    	; 0x34e <bnc_emp_pulse_time+0x88>
 2e2:	45 2b       	or	r20, r21
 2e4:	a1 f5       	brne	.+104    	; 0x34e <bnc_emp_pulse_time+0x88>
 2e6:	23 2b       	or	r18, r19
 2e8:	91 f5       	brne	.+100    	; 0x34e <bnc_emp_pulse_time+0x88>
 2ea:	ef 28       	or	r14, r15
 2ec:	59 f0       	breq	.+22     	; 0x304 <bnc_emp_pulse_time+0x3e>
 2ee:	2f c0       	rjmp	.+94     	; 0x34e <bnc_emp_pulse_time+0x88>
 2f0:	67 2b       	or	r22, r23
 2f2:	59 f0       	breq	.+22     	; 0x30a <bnc_emp_pulse_time+0x44>
 2f4:	ef 28       	or	r14, r15
 2f6:	59 f5       	brne	.+86     	; 0x34e <bnc_emp_pulse_time+0x88>
 2f8:	45 2b       	or	r20, r21
 2fa:	49 f5       	brne	.+82     	; 0x34e <bnc_emp_pulse_time+0x88>
 2fc:	23 2b       	or	r18, r19
 2fe:	39 f5       	brne	.+78     	; 0x34e <bnc_emp_pulse_time+0x88>
 300:	01 2b       	or	r16, r17
 302:	29 f5       	brne	.+74     	; 0x34e <bnc_emp_pulse_time+0x88>
 304:	cd 28       	or	r12, r13
 306:	59 f0       	breq	.+22     	; 0x31e <bnc_emp_pulse_time+0x58>
 308:	22 c0       	rjmp	.+68     	; 0x34e <bnc_emp_pulse_time+0x88>
 30a:	45 2b       	or	r20, r21
 30c:	69 f0       	breq	.+26     	; 0x328 <bnc_emp_pulse_time+0x62>
 30e:	cd 28       	or	r12, r13
 310:	f1 f4       	brne	.+60     	; 0x34e <bnc_emp_pulse_time+0x88>
 312:	23 2b       	or	r18, r19
 314:	e1 f4       	brne	.+56     	; 0x34e <bnc_emp_pulse_time+0x88>
 316:	01 2b       	or	r16, r17
 318:	d1 f4       	brne	.+52     	; 0x34e <bnc_emp_pulse_time+0x88>
 31a:	ef 28       	or	r14, r15
 31c:	c1 f4       	brne	.+48     	; 0x34e <bnc_emp_pulse_time+0x88>
 31e:	80 e0       	ldi	r24, 0x00	; 0
 320:	90 e0       	ldi	r25, 0x00	; 0
 322:	ab 28       	or	r10, r11
 324:	91 f0       	breq	.+36     	; 0x34a <bnc_emp_pulse_time+0x84>
 326:	0f c0       	rjmp	.+30     	; 0x346 <bnc_emp_pulse_time+0x80>
 328:	23 2b       	or	r18, r19
 32a:	19 f4       	brne	.+6      	; 0x332 <bnc_emp_pulse_time+0x6c>
 32c:	20 e0       	ldi	r18, 0x00	; 0
 32e:	30 e0       	ldi	r19, 0x00	; 0
 330:	10 c0       	rjmp	.+32     	; 0x352 <bnc_emp_pulse_time+0x8c>
 332:	ab 28       	or	r10, r11
 334:	61 f4       	brne	.+24     	; 0x34e <bnc_emp_pulse_time+0x88>
 336:	01 2b       	or	r16, r17
 338:	51 f4       	brne	.+20     	; 0x34e <bnc_emp_pulse_time+0x88>
 33a:	ef 28       	or	r14, r15
 33c:	41 f4       	brne	.+16     	; 0x34e <bnc_emp_pulse_time+0x88>
 33e:	80 e0       	ldi	r24, 0x00	; 0
 340:	90 e0       	ldi	r25, 0x00	; 0
 342:	cd 28       	or	r12, r13
 344:	11 f0       	breq	.+4      	; 0x34a <bnc_emp_pulse_time+0x84>
 346:	81 e0       	ldi	r24, 0x01	; 1
 348:	90 e0       	ldi	r25, 0x00	; 0
 34a:	9c 01       	movw	r18, r24
 34c:	02 c0       	rjmp	.+4      	; 0x352 <bnc_emp_pulse_time+0x8c>
 34e:	21 e0       	ldi	r18, 0x01	; 1
 350:	30 e0       	ldi	r19, 0x00	; 0
 352:	c9 01       	movw	r24, r18
 354:	1f 91       	pop	r17
 356:	0f 91       	pop	r16
 358:	ff 90       	pop	r15
 35a:	ef 90       	pop	r14
 35c:	df 90       	pop	r13
 35e:	cf 90       	pop	r12
 360:	bf 90       	pop	r11
 362:	af 90       	pop	r10
 364:	08 95       	ret

00000366 <bnc_turn_on>:
 366:	ab 98       	cbi	0x15, 3	; 21
 368:	08 95       	ret

0000036a <bnc_turn_off>:
 36a:	ab 9a       	sbi	0x15, 3	; 21
 36c:	08 95       	ret

0000036e <bnc_check>:
 36e:	af 92       	push	r10
 370:	bf 92       	push	r11
 372:	cf 92       	push	r12
 374:	df 92       	push	r13
 376:	ef 92       	push	r14
 378:	ff 92       	push	r15
 37a:	0f 93       	push	r16
 37c:	1f 93       	push	r17
 37e:	86 b3       	in	r24, 0x16	; 22
 380:	90 e0       	ldi	r25, 0x00	; 0
 382:	21 e0       	ldi	r18, 0x01	; 1
 384:	30 e0       	ldi	r19, 0x00	; 0
 386:	82 27       	eor	r24, r18
 388:	93 27       	eor	r25, r19
 38a:	81 70       	andi	r24, 0x01	; 1
 38c:	90 70       	andi	r25, 0x00	; 0
 38e:	90 93 75 00 	sts	0x0075, r25
 392:	80 93 74 00 	sts	0x0074, r24
 396:	83 b3       	in	r24, 0x13	; 19
 398:	90 e0       	ldi	r25, 0x00	; 0
 39a:	82 27       	eor	r24, r18
 39c:	93 27       	eor	r25, r19
 39e:	81 70       	andi	r24, 0x01	; 1
 3a0:	90 70       	andi	r25, 0x00	; 0
 3a2:	90 93 65 00 	sts	0x0065, r25
 3a6:	80 93 64 00 	sts	0x0064, r24
 3aa:	83 b3       	in	r24, 0x13	; 19
 3ac:	90 e0       	ldi	r25, 0x00	; 0
 3ae:	96 95       	lsr	r25
 3b0:	87 95       	ror	r24
 3b2:	82 27       	eor	r24, r18
 3b4:	93 27       	eor	r25, r19
 3b6:	81 70       	andi	r24, 0x01	; 1
 3b8:	90 70       	andi	r25, 0x00	; 0
 3ba:	90 93 71 00 	sts	0x0071, r25
 3be:	80 93 70 00 	sts	0x0070, r24
 3c2:	83 b3       	in	r24, 0x13	; 19
 3c4:	90 e0       	ldi	r25, 0x00	; 0
 3c6:	96 95       	lsr	r25
 3c8:	87 95       	ror	r24
 3ca:	96 95       	lsr	r25
 3cc:	87 95       	ror	r24
 3ce:	82 27       	eor	r24, r18
 3d0:	93 27       	eor	r25, r19
 3d2:	81 70       	andi	r24, 0x01	; 1
 3d4:	90 70       	andi	r25, 0x00	; 0
 3d6:	90 93 73 00 	sts	0x0073, r25
 3da:	80 93 72 00 	sts	0x0072, r24
 3de:	80 91 74 00 	lds	r24, 0x0074
 3e2:	90 91 75 00 	lds	r25, 0x0075
 3e6:	89 2b       	or	r24, r25
 3e8:	99 f4       	brne	.+38     	; 0x410 <bnc_check+0xa2>
 3ea:	80 91 64 00 	lds	r24, 0x0064
 3ee:	90 91 65 00 	lds	r25, 0x0065
 3f2:	89 2b       	or	r24, r25
 3f4:	69 f4       	brne	.+26     	; 0x410 <bnc_check+0xa2>
 3f6:	80 91 70 00 	lds	r24, 0x0070
 3fa:	90 91 71 00 	lds	r25, 0x0071
 3fe:	89 2b       	or	r24, r25
 400:	39 f4       	brne	.+14     	; 0x410 <bnc_check+0xa2>
 402:	80 91 72 00 	lds	r24, 0x0072
 406:	90 91 73 00 	lds	r25, 0x0073
 40a:	89 2b       	or	r24, r25
 40c:	09 f4       	brne	.+2      	; 0x410 <bnc_check+0xa2>
 40e:	e3 c0       	rjmp	.+454    	; 0x5d6 <__stack+0x177>
 410:	86 ea       	ldi	r24, 0xA6	; 166
 412:	9e e0       	ldi	r25, 0x0E	; 14
 414:	01 97       	sbiw	r24, 0x01	; 1
 416:	f1 f7       	brne	.-4      	; 0x414 <bnc_check+0xa6>
 418:	86 b3       	in	r24, 0x16	; 22
 41a:	90 e0       	ldi	r25, 0x00	; 0
 41c:	21 e0       	ldi	r18, 0x01	; 1
 41e:	30 e0       	ldi	r19, 0x00	; 0
 420:	82 27       	eor	r24, r18
 422:	93 27       	eor	r25, r19
 424:	81 70       	andi	r24, 0x01	; 1
 426:	90 70       	andi	r25, 0x00	; 0
 428:	90 93 6d 00 	sts	0x006D, r25
 42c:	80 93 6c 00 	sts	0x006C, r24
 430:	83 b3       	in	r24, 0x13	; 19
 432:	90 e0       	ldi	r25, 0x00	; 0
 434:	82 27       	eor	r24, r18
 436:	93 27       	eor	r25, r19
 438:	81 70       	andi	r24, 0x01	; 1
 43a:	90 70       	andi	r25, 0x00	; 0
 43c:	90 93 69 00 	sts	0x0069, r25
 440:	80 93 68 00 	sts	0x0068, r24
 444:	83 b3       	in	r24, 0x13	; 19
 446:	90 e0       	ldi	r25, 0x00	; 0
 448:	96 95       	lsr	r25
 44a:	87 95       	ror	r24
 44c:	82 27       	eor	r24, r18
 44e:	93 27       	eor	r25, r19
 450:	81 70       	andi	r24, 0x01	; 1
 452:	90 70       	andi	r25, 0x00	; 0
 454:	90 93 6f 00 	sts	0x006F, r25
 458:	80 93 6e 00 	sts	0x006E, r24
 45c:	83 b3       	in	r24, 0x13	; 19
 45e:	90 e0       	ldi	r25, 0x00	; 0
 460:	96 95       	lsr	r25
 462:	87 95       	ror	r24
 464:	96 95       	lsr	r25
 466:	87 95       	ror	r24
 468:	82 27       	eor	r24, r18
 46a:	93 27       	eor	r25, r19
 46c:	81 70       	andi	r24, 0x01	; 1
 46e:	90 70       	andi	r25, 0x00	; 0
 470:	90 93 67 00 	sts	0x0067, r25
 474:	80 93 66 00 	sts	0x0066, r24
 478:	80 91 74 00 	lds	r24, 0x0074
 47c:	90 91 75 00 	lds	r25, 0x0075
 480:	60 91 64 00 	lds	r22, 0x0064
 484:	70 91 65 00 	lds	r23, 0x0065
 488:	40 91 70 00 	lds	r20, 0x0070
 48c:	50 91 71 00 	lds	r21, 0x0071
 490:	20 91 72 00 	lds	r18, 0x0072
 494:	30 91 73 00 	lds	r19, 0x0073
 498:	00 91 6c 00 	lds	r16, 0x006C
 49c:	10 91 6d 00 	lds	r17, 0x006D
 4a0:	e0 90 68 00 	lds	r14, 0x0068
 4a4:	f0 90 69 00 	lds	r15, 0x0069
 4a8:	c0 90 6e 00 	lds	r12, 0x006E
 4ac:	d0 90 6f 00 	lds	r13, 0x006F
 4b0:	a0 90 66 00 	lds	r10, 0x0066
 4b4:	b0 90 67 00 	lds	r11, 0x0067
 4b8:	be de       	rcall	.-644    	; 0x236 <bnc_emp>
 4ba:	89 2b       	or	r24, r25
 4bc:	11 f0       	breq	.+4      	; 0x4c2 <__stack+0x63>
 4be:	ab 9a       	sbi	0x15, 3	; 21
 4c0:	27 de       	rcall	.-946    	; 0x110 <power_off>
 4c2:	88 ea       	ldi	r24, 0xA8	; 168
 4c4:	91 e6       	ldi	r25, 0x61	; 97
 4c6:	01 97       	sbiw	r24, 0x01	; 1
 4c8:	f1 f7       	brne	.-4      	; 0x4c6 <__stack+0x67>
 4ca:	86 b3       	in	r24, 0x16	; 22
 4cc:	90 e0       	ldi	r25, 0x00	; 0
 4ce:	21 e0       	ldi	r18, 0x01	; 1
 4d0:	30 e0       	ldi	r19, 0x00	; 0
 4d2:	82 27       	eor	r24, r18
 4d4:	93 27       	eor	r25, r19
 4d6:	81 70       	andi	r24, 0x01	; 1
 4d8:	90 70       	andi	r25, 0x00	; 0
 4da:	90 93 6d 00 	sts	0x006D, r25
 4de:	80 93 6c 00 	sts	0x006C, r24
 4e2:	83 b3       	in	r24, 0x13	; 19
 4e4:	90 e0       	ldi	r25, 0x00	; 0
 4e6:	82 27       	eor	r24, r18
 4e8:	93 27       	eor	r25, r19
 4ea:	81 70       	andi	r24, 0x01	; 1
 4ec:	90 70       	andi	r25, 0x00	; 0
 4ee:	90 93 69 00 	sts	0x0069, r25
 4f2:	80 93 68 00 	sts	0x0068, r24
 4f6:	83 b3       	in	r24, 0x13	; 19
 4f8:	90 e0       	ldi	r25, 0x00	; 0
 4fa:	96 95       	lsr	r25
 4fc:	87 95       	ror	r24
 4fe:	82 27       	eor	r24, r18
 500:	93 27       	eor	r25, r19
 502:	81 70       	andi	r24, 0x01	; 1
 504:	90 70       	andi	r25, 0x00	; 0
 506:	90 93 6f 00 	sts	0x006F, r25
 50a:	80 93 6e 00 	sts	0x006E, r24
 50e:	83 b3       	in	r24, 0x13	; 19
 510:	90 e0       	ldi	r25, 0x00	; 0
 512:	96 95       	lsr	r25
 514:	87 95       	ror	r24
 516:	96 95       	lsr	r25
 518:	87 95       	ror	r24
 51a:	82 27       	eor	r24, r18
 51c:	93 27       	eor	r25, r19
 51e:	81 70       	andi	r24, 0x01	; 1
 520:	90 70       	andi	r25, 0x00	; 0
 522:	90 93 67 00 	sts	0x0067, r25
 526:	80 93 66 00 	sts	0x0066, r24
 52a:	80 91 74 00 	lds	r24, 0x0074
 52e:	90 91 75 00 	lds	r25, 0x0075
 532:	60 91 64 00 	lds	r22, 0x0064
 536:	70 91 65 00 	lds	r23, 0x0065
 53a:	40 91 70 00 	lds	r20, 0x0070
 53e:	50 91 71 00 	lds	r21, 0x0071
 542:	20 91 72 00 	lds	r18, 0x0072
 546:	30 91 73 00 	lds	r19, 0x0073
 54a:	00 91 6c 00 	lds	r16, 0x006C
 54e:	10 91 6d 00 	lds	r17, 0x006D
 552:	e0 90 68 00 	lds	r14, 0x0068
 556:	f0 90 69 00 	lds	r15, 0x0069
 55a:	c0 90 6e 00 	lds	r12, 0x006E
 55e:	d0 90 6f 00 	lds	r13, 0x006F
 562:	a0 90 66 00 	lds	r10, 0x0066
 566:	b0 90 67 00 	lds	r11, 0x0067
 56a:	ad de       	rcall	.-678    	; 0x2c6 <bnc_emp_pulse_time>
 56c:	89 2b       	or	r24, r25
 56e:	19 f0       	breq	.+6      	; 0x576 <__stack+0x117>
 570:	ab 9a       	sbi	0x15, 3	; 21
 572:	ce dd       	rcall	.-1124   	; 0x110 <power_off>
 574:	ff cf       	rjmp	.-2      	; 0x574 <__stack+0x115>
 576:	10 92 6b 00 	sts	0x006B, r1
 57a:	10 92 6a 00 	sts	0x006A, r1
 57e:	80 91 74 00 	lds	r24, 0x0074
 582:	90 91 75 00 	lds	r25, 0x0075
 586:	89 2b       	or	r24, r25
 588:	19 f0       	breq	.+6      	; 0x590 <__stack+0x131>
 58a:	8a e0       	ldi	r24, 0x0A	; 10
 58c:	90 e0       	ldi	r25, 0x00	; 0
 58e:	1a c0       	rjmp	.+52     	; 0x5c4 <__stack+0x165>
 590:	80 91 64 00 	lds	r24, 0x0064
 594:	90 91 65 00 	lds	r25, 0x0065
 598:	89 2b       	or	r24, r25
 59a:	19 f0       	breq	.+6      	; 0x5a2 <__stack+0x143>
 59c:	84 e1       	ldi	r24, 0x14	; 20
 59e:	90 e0       	ldi	r25, 0x00	; 0
 5a0:	11 c0       	rjmp	.+34     	; 0x5c4 <__stack+0x165>
 5a2:	80 91 70 00 	lds	r24, 0x0070
 5a6:	90 91 71 00 	lds	r25, 0x0071
 5aa:	89 2b       	or	r24, r25
 5ac:	19 f0       	breq	.+6      	; 0x5b4 <__stack+0x155>
 5ae:	82 e3       	ldi	r24, 0x32	; 50
 5b0:	90 e0       	ldi	r25, 0x00	; 0
 5b2:	08 c0       	rjmp	.+16     	; 0x5c4 <__stack+0x165>
 5b4:	80 91 72 00 	lds	r24, 0x0072
 5b8:	90 91 73 00 	lds	r25, 0x0073
 5bc:	89 2b       	or	r24, r25
 5be:	59 f0       	breq	.+22     	; 0x5d6 <__stack+0x177>
 5c0:	84 e6       	ldi	r24, 0x64	; 100
 5c2:	90 e0       	ldi	r25, 0x00	; 0
 5c4:	90 93 6b 00 	sts	0x006B, r25
 5c8:	80 93 6a 00 	sts	0x006A, r24
 5cc:	80 91 6a 00 	lds	r24, 0x006A
 5d0:	90 91 6b 00 	lds	r25, 0x006B
 5d4:	e8 dd       	rcall	.-1072   	; 0x1a6 <pay>
 5d6:	1f 91       	pop	r17
 5d8:	0f 91       	pop	r16
 5da:	ff 90       	pop	r15
 5dc:	ef 90       	pop	r14
 5de:	df 90       	pop	r13
 5e0:	cf 90       	pop	r12
 5e2:	bf 90       	pop	r11
 5e4:	af 90       	pop	r10
 5e6:	08 95       	ret

000005e8 <main>:
 5e8:	80 dd       	rcall	.-1280   	; 0xea <init>
 5ea:	bd de       	rcall	.-646    	; 0x366 <bnc_turn_on>
 5ec:	bb 98       	cbi	0x17, 3	; 23
 5ee:	c3 9a       	sbi	0x18, 3	; 24
 5f0:	be de       	rcall	.-644    	; 0x36e <bnc_check>
 5f2:	b3 99       	sbic	0x16, 3	; 22
 5f4:	fd cf       	rjmp	.-6      	; 0x5f0 <main+0x8>
 5f6:	28 dd       	rcall	.-1456   	; 0x48 <operator_check>
 5f8:	fb cf       	rjmp	.-10     	; 0x5f0 <main+0x8>

000005fa <__divmodhi4>:
 5fa:	97 fb       	bst	r25, 7
 5fc:	09 2e       	mov	r0, r25
 5fe:	07 26       	eor	r0, r23
 600:	0a d0       	rcall	.+20     	; 0x616 <__divmodhi4_neg1>
 602:	77 fd       	sbrc	r23, 7
 604:	04 d0       	rcall	.+8      	; 0x60e <__divmodhi4_neg2>
 606:	0c d0       	rcall	.+24     	; 0x620 <__udivmodhi4>
 608:	06 d0       	rcall	.+12     	; 0x616 <__divmodhi4_neg1>
 60a:	00 20       	and	r0, r0
 60c:	1a f4       	brpl	.+6      	; 0x614 <__divmodhi4_exit>

0000060e <__divmodhi4_neg2>:
 60e:	70 95       	com	r23
 610:	61 95       	neg	r22
 612:	7f 4f       	sbci	r23, 0xFF	; 255

00000614 <__divmodhi4_exit>:
 614:	08 95       	ret

00000616 <__divmodhi4_neg1>:
 616:	f6 f7       	brtc	.-4      	; 0x614 <__divmodhi4_exit>
 618:	90 95       	com	r25
 61a:	81 95       	neg	r24
 61c:	9f 4f       	sbci	r25, 0xFF	; 255
 61e:	08 95       	ret

00000620 <__udivmodhi4>:
 620:	aa 1b       	sub	r26, r26
 622:	bb 1b       	sub	r27, r27
 624:	51 e1       	ldi	r21, 0x11	; 17
 626:	07 c0       	rjmp	.+14     	; 0x636 <__udivmodhi4_ep>

00000628 <__udivmodhi4_loop>:
 628:	aa 1f       	adc	r26, r26
 62a:	bb 1f       	adc	r27, r27
 62c:	a6 17       	cp	r26, r22
 62e:	b7 07       	cpc	r27, r23
 630:	10 f0       	brcs	.+4      	; 0x636 <__udivmodhi4_ep>
 632:	a6 1b       	sub	r26, r22
 634:	b7 0b       	sbc	r27, r23

00000636 <__udivmodhi4_ep>:
 636:	88 1f       	adc	r24, r24
 638:	99 1f       	adc	r25, r25
 63a:	5a 95       	dec	r21
 63c:	a9 f7       	brne	.-22     	; 0x628 <__udivmodhi4_loop>
 63e:	80 95       	com	r24
 640:	90 95       	com	r25
 642:	bc 01       	movw	r22, r24
 644:	cd 01       	movw	r24, r26
 646:	08 95       	ret

00000648 <_exit>:
 648:	f8 94       	cli

0000064a <__stop_program>:
 64a:	ff cf       	rjmp	.-2      	; 0x64a <__stop_program>
